(itree
Tree
p0
(dp1
S'root'
p2
(inode
Node
p3
(dp4
S'right'
p5
(inode
Node
p6
(dp7
g5
(inode
Node
p8
(dp9
g5
NsS'prediction'
p10
(lp11
cnumpy.core.multiarray
scalar
p12
(cnumpy
dtype
p13
(S'f8'
p14
I0
I1
tp15
Rp16
(I3
S'<'
p17
NNNI-1
I-1
I0
tp18
bS'8\x97Y\xee\xadC!\xc0'
p19
tp20
Rp21
ag12
(g16
S'u\x12\x1e\xf6\xd8\x97D@'
p22
tp23
Rp24
asS'starting_points_idx'
p25
(lp26
I0
aI0
aI0
aI0
aI0
aI0
aI0
aI0
aI0
aI0
aI0
aI0
aI0
aI0
aI0
aI0
aI0
aI0
aI0
aI0
aI0
aI0
aI0
aI0
aI0
aI0
aI0
aI0
aI0
aI0
aI0
aI0
aI0
asS'radius'
p27
NsS'trajectory_idx'
p28
(lp29
I20
aI169
aI296
aI399
aI749
aI867
aI930
aI944
aI946
aI954
aI992
aI1158
aI1161
aI1172
aI1212
aI1255
aI1257
aI1459
aI1561
aI1657
aI1848
aI1906
aI1989
aI2113
aI2172
aI2192
aI2306
aI2319
aI2805
aI2907
aI2913
aI2937
aI2965
asS'left'
p30
NsS'decision_point'
p31
Nsbsg10
(lp32
g12
(g16
S'^"(\xc8\x99C!\xc0'
p33
tp34
Rp35
ag12
(g16
S'\xfa\xcc\xa3,M\x98D@'
p36
tp37
Rp38
asg25
Nsg27
F1.8825928704285173
sg28
Nsg30
(inode
Node
p39
(dp40
g5
Nsg10
(lp41
g12
(g16
S'\xecc\xff"\x0c8!\xc0'
p42
tp43
Rp44
ag12
(g16
S'\x00{\xa2\xd4\x8f\x98D@'
p45
tp46
Rp47
asg25
(lp48
I1
aI1
aI1
aI1
aI1
aI1
aI1
aI1
aI1
aI1
aI1
aI1
aI1
aI1
aI1
aI1
aI1
aI1
aI1
aI1
aI1
aI1
aI1
aI1
aI1
aI1
aI1
aI1
aI1
aI1
aI1
aI1
aI1
aI1
aI1
aI1
aI1
aI1
aI1
aI1
aI1
aI1
aI1
aI1
aI1
asg27
Nsg28
(lp49
I26
aI30
aI105
aI252
aI374
aI417
aI484
aI637
aI672
aI694
aI861
aI869
aI906
aI939
aI1132
aI1231
aI1244
aI1370
aI1504
aI1652
aI1696
aI1887
aI1889
aI1893
aI1938
aI1966
aI2028
aI2048
aI2103
aI2157
aI2158
aI2173
aI2430
aI2445
aI2516
aI2537
aI2568
aI2819
aI2860
aI2867
aI2888
aI2924
aI2951
aI3006
aI3023
asg30
Nsg31
Nsbsg31
cnumpy.core.multiarray
_reconstruct
p50
(cnumpy
ndarray
p51
(I0
tp52
S'b'
p53
tp54
Rp55
(I1
(I2
tp56
g16
I00
S'\xfdJ\xe7\xc3\xb3T!\xc0|\x9ci\xc2\xf6\x9fD@'
p57
tp58
bsbsg10
(lp59
g12
(g16
S'Y\xe0\x82}\xa58!\xc0'
p60
tp61
Rp62
ag12
(g16
S'`\x01\xe2l\xcd\x97D@'
p63
tp64
Rp65
asg25
Nsg27
F1.0156088752120076
sg28
Nsg30
(inode
Node
p66
(dp67
g5
(inode
Node
p68
(dp69
g5
Nsg10
(lp70
g12
(g16
S'wQ5\xfc\xab<!\xc0'
p71
tp72
Rp73
ag12
(g16
S'\xb7\x82(\x9c\x1e\x96D@'
p74
tp75
Rp76
asg25
(lp77
I1
aI1
aI1
aI1
aI1
aI1
aI1
aI1
aI1
aI1
aI1
aI1
aI1
aI1
asg27
Nsg28
(lp78
I78
aI124
aI808
aI840
aI953
aI973
aI1009
aI1105
aI1302
aI1350
aI2340
aI2397
aI2560
aI2930
asg30
Nsg31
Nsbsg10
(lp79
g12
(g16
S',\xc0xjY8!\xc0'
p80
tp81
Rp82
ag12
(g16
S'\x16W\xb3\xf5\xc9\x97D@'
p83
tp84
Rp85
asg25
Nsg27
F1.2476205420970252
sg28
Nsg30
(inode
Node
p86
(dp87
g5
(inode
Node
p88
(dp89
g5
(inode
Node
p90
(dp91
g5
Nsg10
(lp92
g12
(g16
S'\xed\xc5\xd2\xc4|C!\xc0'
p93
tp94
Rp95
ag12
(g16
S'c\x88_pK\x9bD@'
p96
tp97
Rp98
asg25
(lp99
I2
aI2
aI2
aI2
aI2
aI2
aI2
asg27
Nsg28
(lp100
I458
aI630
aI652
aI912
aI924
aI2248
aI2264
asg30
Nsg31
Nsbsg10
(lp101
g12
(g16
S'\xb2\xa1\xd5\xa8\x0b9!\xc0'
p102
tp103
Rp104
ag12
(g16
S'\x89\x05B\xdb\xff\x9cD@'
p105
tp106
Rp107
asg25
Nsg27
F1.0088377038511478
sg28
Nsg30
(inode
Node
p108
(dp109
g5
(inode
Node
p110
(dp111
g5
Nsg10
(lp112
g12
(g16
S'\xe3\x06\xfe\xf4\xe0H!\xc0'
p113
tp114
Rp115
ag12
(g16
S"\xf8\xc8'\xe6]\x98D@"
p116
tp117
Rp118
asg25
(lp119
I3
aI3
aI3
aI3
aI3
aI3
aI3
asg27
Nsg28
(lp120
I194
aI560
aI959
aI1192
aI1301
aI1617
aI2373
asg30
Nsg31
Nsbsg10
(lp121
g12
(g16
S'\xfd\xde\xa6?\xfb;!\xc0'
p122
tp123
Rp124
ag12
(g16
S's\xc3\x98\x9d\xee\x97D@'
p125
tp126
Rp127
asg25
Nsg27
F1.2621184110923946
sg28
Nsg30
(inode
Node
p128
(dp129
g5
(inode
Node
p130
(dp131
g5
Nsg10
(lp132
g12
(g16
S'\xe7\xf3\xf6\x8c\xe9F!\xc0'
p133
tp134
Rp135
ag12
(g16
S"\xc3a\x0e'\xd5\x97D@"
p136
tp137
Rp138
asg25
(lp139
I4
aI4
aI4
aI4
aI4
aI4
aI4
aI4
aI4
aI4
asg27
Nsg28
(lp140
I273
aI467
aI523
aI823
aI1026
aI1288
aI1597
aI2037
aI2123
aI2786
asg30
Nsg31
Nsbsg10
(lp141
g12
(g16
S'[@v\xd1C;!\xc0'
p142
tp143
Rp144
ag12
(g16
S'\x17\x01>9\xd3\x98D@'
p145
tp146
Rp147
asg25
Nsg27
F1.0990488577983744
sg28
Nsg30
(inode
Node
p148
(dp149
g5
Nsg10
(lp150
g12
(g16
S'\xe5\xe0F\x88\xfaB!\xc0'
p151
tp152
Rp153
ag12
(g16
S'l\x97x8h\x99D@'
p154
tp155
Rp156
asg25
(lp157
I5
aI5
aI5
aI5
aI5
aI5
aI5
aI5
aI5
aI5
aI5
aI5
aI5
aI5
aI5
aI5
aI5
aI5
aI5
aI5
aI5
aI5
aI5
aI5
aI5
aI5
aI5
aI5
aI5
aI5
aI5
aI5
aI5
aI5
aI5
aI5
aI5
aI5
aI5
aI5
aI5
aI5
aI5
aI5
aI5
aI5
aI5
aI5
aI5
asg27
Nsg28
(lp158
I14
aI153
aI167
aI170
aI212
aI223
aI234
aI291
aI342
aI348
aI453
aI530
aI542
aI625
aI717
aI723
aI811
aI827
aI862
aI935
aI1006
aI1023
aI1038
aI1056
aI1085
aI1124
aI1140
aI1246
aI1283
aI1351
aI1388
aI1466
aI1584
aI1771
aI2013
aI2122
aI2165
aI2239
aI2352
aI2423
aI2474
aI2484
aI2609
aI2672
aI2685
aI2853
aI2876
aI2889
aI2898
asg30
Nsg31
Nsbsg31
g50
(g51
(I0
tp159
g53
tp160
Rp161
(I1
(I2
tp162
g16
I00
S'\xe4\x9e\xae\xeeXT!\xc0\x1b\xd8*\xc1\xe2\x9cD@'
p163
tp164
bsbsg31
g50
(g51
(I0
tp165
g53
tp166
Rp167
(I1
(I2
tp168
g16
I00
S'-[\xeb\x8b\x84V!\xc0\xc1oC\x8c\xd7\x9cD@'
p169
tp170
bsbsg31
g50
(g51
(I0
tp171
g53
tp172
Rp173
(I1
(I2
tp174
g16
I00
S'\xfa\x98\x0f\x08tV!\xc0\xa7\x1f\xd4E\n\x9dD@'
p175
tp176
bsbsg10
(lp177
g12
(g16
S'Y\xbc\x7f\xcb\xce8!\xc0'
p178
tp179
Rp180
ag12
(g16
S'R\x82\xf6\x9a\xba\x97D@'
p181
tp182
Rp183
asg25
Nsg27
F1.1356324586792772
sg28
Nsg30
(inode
Node
p184
(dp185
g5
(inode
Node
p186
(dp187
g5
Nsg10
(lp188
g12
(g16
S'\x9eY\xf3.\nI!\xc0'
p189
tp190
Rp191
ag12
(g16
S'\x9c\xad\xdbU\x1c\x92D@'
p192
tp193
Rp194
asg25
(lp195
I3
aI3
aI3
aI3
aI3
aI3
aI3
aI3
aI3
aI3
aI3
aI3
aI3
aI3
aI3
aI3
aI3
aI3
aI3
aI3
aI3
aI3
asg27
Nsg28
(lp196
I207
aI210
aI416
aI495
aI513
aI628
aI640
aI642
aI719
aI824
aI878
aI1169
aI1405
aI1514
aI1648
aI1691
aI1900
aI1978
aI2067
aI2198
aI2218
aI2757
asg30
Nsg31
Nsbsg10
(lp197
g12
(g16
S'\x83\x82\x18\xe4\t9!\xc0'
p198
tp199
Rp200
ag12
(g16
S'\xd3\x18\xf8\xc4y\x97D@'
p201
tp202
Rp203
asg25
Nsg27
F1.1942273445750653
sg28
Nsg30
(inode
Node
p204
(dp205
g5
(inode
Node
p206
(dp207
g5
(inode
Node
p208
(dp209
g5
Nsg10
(lp210
g12
(g16
S'7\xa8\xfd\xd6NL!\xc0'
p211
tp212
Rp213
ag12
(g16
S'\x19\xce5\xcc\xd0\x9aD@'
p214
tp215
Rp216
asg25
(lp217
I4
aI4
aI4
asg27
Nsg28
(lp218
I131
aI2330
aI2640
asg30
Nsg31
Nsbsg10
(lp219
g12
(g16
S'\xd1*\xc0\xcaG>!\xc0'
p220
tp221
Rp222
ag12
(g16
S'\x8a\xca\xa4\xc2P\x99D@'
p223
tp224
Rp225
asg25
Nsg27
F1.2379218140236998
sg28
Nsg30
(inode
Node
p226
(dp227
g5
(inode
Node
p228
(dp229
g5
Nsg10
(lp230
g12
(g16
S'*\xb9\xd4R\x8a\xbf \xc0'
p231
tp232
Rp233
ag12
(g16
S'\xd5\x97\xa5\x9d\x9a\xa7D@'
p234
tp235
Rp236
asg25
(lp237
I5
aI5
aI5
aI5
aI5
asg27
Nsg28
(lp238
I283
aI1670
aI1755
aI2004
aI2852
asg30
Nsg31
Nsbsg10
(lp239
g12
(g16
S'\xebG\xb0^23!\xc0'
p240
tp241
Rp242
ag12
(g16
S'\x0c\x08\xad\x87o\x98D@'
p243
tp244
Rp245
asg25
Nsg27
F1.0161420311883818
sg28
Nsg30
(inode
Node
p246
(dp247
g5
(inode
Node
p248
(dp249
g5
Nsg10
(lp250
g12
(g16
S'\xcb -\x84\x8b\x0b!\xc0'
p251
tp252
Rp253
ag12
(g16
S'\r\xef(\x84\xc4\x96D@'
p254
tp255
Rp256
asg25
(lp257
I6
aI6
aI6
aI6
aI6
aI6
aI6
aI6
aI6
aI6
aI6
aI6
aI6
aI6
aI6
asg27
Nsg28
(lp258
I136
aI305
aI447
aI649
aI709
aI1354
aI1565
aI1568
aI1835
aI1947
aI2534
aI2700
aI2793
aI2952
aI2972
asg30
Nsg31
Nsbsg10
(lp259
g12
(g16
S'\x95\x9f\x05T\xfe5!\xc0'
p260
tp261
Rp262
ag12
(g16
S'\xd8\x06nb\x14\x98D@'
p263
tp264
Rp265
asg25
Nsg27
F1.1483489400769817
sg28
Nsg30
(inode
Node
p266
(dp267
g5
(inode
Node
p268
(dp269
g5
Nsg10
(lp270
g12
(g16
S'\x18\x08\x02d\xe8@!\xc0'
p271
tp272
Rp273
ag12
(g16
S'\xf3\x1f\xd2o_\x95D@'
p274
tp275
Rp276
asg25
(lp277
I7
aI7
aI7
asg27
Nsg28
(lp278
I2278
aI2648
aI2663
asg30
Nsg31
Nsbsg10
(lp279
g12
(g16
S'\xa3\x0bS\xcf\xa59!\xc0'
p280
tp281
Rp282
ag12
(g16
S'[\xd3\x17\x9d\x87\x98D@'
p283
tp284
Rp285
asg25
Nsg27
F1.7213373808152634
sg28
Nsg30
(inode
Node
p286
(dp287
g5
(inode
Node
p288
(dp289
g5
Nsg10
(lp290
g12
(g16
S'\xcf\xf7S\xe3\xa5C!\xc0'
p291
tp292
Rp293
ag12
(g16
S'\xa8qo~C\x98D@'
p294
tp295
Rp296
asg25
(lp297
I8
aI8
aI8
aI8
asg27
Nsg28
(lp298
I476
aI2040
aI2421
aI2899
asg30
Nsg31
Nsbsg10
(lp299
g12
(g16
S'\xd8~\xfdZr;!\xc0'
p300
tp301
Rp302
ag12
(g16
S'\xaf\xa6(\xd3\xd5\x97D@'
p303
tp304
Rp305
asg25
Nsg27
F2.420106733430596
sg28
Nsg30
(inode
Node
p306
(dp307
g5
(inode
Node
p308
(dp309
g5
Nsg10
(lp310
g12
(g16
S'\xc6\x15\x17G\xe5V!\xc0'
p311
tp312
Rp313
ag12
(g16
S'\xd2\xe2\x8caN\x9eD@'
p314
tp315
Rp316
asg25
(lp317
I9
asg27
Nsg28
(lp318
I1761
asg30
Nsg31
Nsbsg10
(lp319
g12
(g16
S'\xda\x15\x80%\x9a;!\xc0'
p320
tp321
Rp322
ag12
(g16
S'\xa8\xcc\xe3\xc1!\x98D@'
p323
tp324
Rp325
asg25
Nsg27
F2.932471244900775
sg28
Nsg30
(inode
Node
p326
(dp327
g5
(inode
Node
p328
(dp329
g5
Nsg10
(lp330
g12
(g16
S'IV4\x8cq6!\xc0'
p331
tp332
Rp333
ag12
(g16
S'\xbe\xfd^\xafU\x9bD@'
p334
tp335
Rp336
asg25
(lp337
I10
aI10
aI10
aI10
aI10
aI10
aI10
aI10
aI10
aI10
aI10
aI10
aI10
aI10
aI10
aI10
aI10
aI10
aI10
aI10
asg27
Nsg28
(lp338
I133
aI163
aI271
aI425
aI507
aI658
aI744
aI1060
aI1227
aI1446
aI1829
aI1869
aI1972
aI2155
aI2176
aI2237
aI2241
aI2724
aI2780
aI2976
asg30
Nsg31
Nsbsg10
(lp339
g12
(g16
S'\x9b\x0e\xc7\xee\xbe;!\xc0'
p340
tp341
Rp342
ag12
(g16
S'\x8d\xc8\xc0\xd7\x1c\x98D@'
p343
tp344
Rp345
asg25
Nsg27
F3.1142065478649537
sg28
Nsg30
(inode
Node
p346
(dp347
g5
(inode
Node
p348
(dp349
g5
Nsg10
(lp350
g12
(g16
S'MhqJi;!\xc0'
p351
tp352
Rp353
ag12
(g16
S'\xcd\xf1\xc0\xb64\x9bD@'
p354
tp355
Rp356
asg25
(lp357
I11
aI11
aI11
aI11
aI11
aI11
aI11
aI11
aI11
aI11
aI11
aI11
aI11
aI11
aI11
aI11
aI11
aI11
aI11
aI11
aI11
aI11
aI11
aI11
aI11
aI11
aI11
aI11
aI11
aI11
aI11
aI11
aI11
aI11
aI11
aI11
aI11
aI11
aI11
aI11
aI11
aI11
aI11
aI11
aI11
aI11
aI11
aI11
aI11
aI11
asg27
Nsg28
(lp358
I115
aI164
aI198
aI233
aI313
aI319
aI340
aI438
aI479
aI532
aI680
aI778
aI791
aI818
aI872
aI873
aI897
aI955
aI984
aI1030
aI1225
aI1320
aI1420
aI1421
aI1470
aI1488
aI1500
aI1559
aI1567
aI1743
aI1753
aI1770
aI1800
aI1805
aI1807
aI1855
aI1976
aI2147
aI2194
aI2282
aI2517
aI2576
aI2595
aI2598
aI2599
aI2607
aI2702
aI2813
aI2841
aI2903
asg30
Nsg31
Nsbsg10
(lp359
g12
(g16
S'\xc13 \xb8d<!\xc0'
p360
tp361
Rp362
ag12
(g16
S'\xf0!\x1e#\xb8\x97D@'
p363
tp364
Rp365
asg25
Nsg27
F3.237765989764962
sg28
Nsg30
(inode
Node
p366
(dp367
g5
(inode
Node
p368
(dp369
g5
Nsg10
(lp370
g12
(g16
S'\x1c\xeb\xe26\x1a0!\xc0'
p371
tp372
Rp373
ag12
(g16
S'RhY\xf7\x8f\x94D@'
p374
tp375
Rp376
asg25
(lp377
I12
aI12
aI12
aI12
aI12
aI12
aI12
aI12
aI12
aI12
aI12
aI12
asg27
Nsg28
(lp378
I357
aI864
aI977
aI1136
aI1369
aI1521
aI1812
aI2390
aI2487
aI2699
aI2847
aI2993
asg30
Nsg31
Nsbsg10
(lp379
g12
(g16
S'\xe6\xb8D\x13%;!\xc0'
p380
tp381
Rp382
ag12
(g16
S'\xe5\x86\xd0&\x84\x97D@'
p383
tp384
Rp385
asg25
Nsg27
F1.444080840795499
sg28
Nsg30
(inode
Node
p386
(dp387
g5
(inode
Node
p388
(dp389
g5
Nsg10
(lp390
g12
(g16
S'\xf3\x1c\x91\xefR6!\xc0'
p391
tp392
Rp393
ag12
(g16
S'\xac\xf2NOi\x9cD@'
p394
tp395
Rp396
asg25
(lp397
I13
aI13
aI13
aI13
aI13
aI13
aI13
aI13
aI13
aI13
asg27
Nsg28
(lp398
I436
aI501
aI506
aI1467
aI2314
aI2369
aI2371
aI2677
aI2977
aI3026
asg30
Nsg31
Nsbsg10
(lp399
g12
(g16
S'\x0f\xe6\x04\xb2@>!\xc0'
p400
tp401
Rp402
ag12
(g16
S'T\x9b\xdb\xcb<\x98D@'
p403
tp404
Rp405
asg25
Nsg27
F1.0402477839179454
sg28
Nsg30
(inode
Node
p406
(dp407
g5
(inode
Node
p408
(dp409
g5
Nsg10
(lp410
g12
(g16
S'\xf2\x02\n\xf2\xb9?!\xc0'
p411
tp412
Rp413
ag12
(g16
S';-N\x97\xc8\x95D@'
p414
tp415
Rp416
asg25
(lp417
I14
aI14
aI14
aI14
aI14
aI14
aI14
aI14
aI14
aI14
aI14
aI14
aI14
aI14
aI14
aI14
aI14
aI14
aI14
asg27
Nsg28
(lp418
I228
aI355
aI429
aI792
aI997
aI1082
aI1175
aI1375
aI1449
aI1673
aI1727
aI1781
aI1839
aI1990
aI2231
aI2272
aI2581
aI2664
aI2815
asg30
Nsg31
Nsbsg10
(lp419
g12
(g16
S'\x91\x13\xadi\xca=!\xc0'
p420
tp421
Rp422
ag12
(g16
S'\x81\xc1|\x93~\x97D@'
p423
tp424
Rp425
asg25
Nsg27
F1.048642817627461
sg28
Nsg30
(inode
Node
p426
(dp427
g5
(inode
Node
p428
(dp429
g5
Nsg10
(lp430
g12
(g16
S'l5\xad\xaa\xb6@!\xc0'
p431
tp432
Rp433
ag12
(g16
S'\x12\x02\x11\x97\xf0\x97D@'
p434
tp435
Rp436
asg25
(lp437
I15
aI15
aI15
aI15
aI15
aI15
aI15
aI15
aI15
aI15
aI15
asg27
Nsg28
(lp438
I81
aI101
aI464
aI553
aI888
aI1248
aI1332
aI1334
aI1389
aI1576
aI2597
asg30
Nsg31
Nsbsg10
(lp439
g12
(g16
S'\xabCn\x86\x1b>!\xc0'
p440
tp441
Rp442
ag12
(g16
S'p\x9a>; \x98D@'
p443
tp444
Rp445
asg25
Nsg27
F1.2970998551731352
sg28
Nsg30
(inode
Node
p446
(dp447
g5
(inode
Node
p448
(dp449
g5
Nsg10
(lp450
g12
(g16
S'\x93\xa6A\xd1<H!\xc0'
p451
tp452
Rp453
ag12
(g16
S'\xfa\x98\x0f\x08t\x92D@'
p454
tp455
Rp456
asg25
(lp457
I16
asg27
Nsg28
(lp458
I1398
asg30
Nsg31
Nsbsg10
(lp459
g12
(g16
S'\x9b\x92\xac\xc3\xd1;!\xc0'
p460
tp461
Rp462
ag12
(g16
S'\xf6r\xe9\xa9\x9f\x98D@'
p463
tp464
Rp465
asg25
Nsg27
F1.3183782224550413
sg28
Nsg30
(inode
Node
p466
(dp467
g5
(inode
Node
p468
(dp469
g5
Nsg10
(lp470
g12
(g16
S'\x96!\x8euqc!\xc0'
p471
tp472
Rp473
ag12
(g16
S'u\x00\xc4]\xbd\x98D@'
p474
tp475
Rp476
asg25
(lp477
I17
asg27
Nsg28
(lp478
I2749
asg30
Nsg31
Nsbsg10
(lp479
g12
(g16
S'\xefb\x1fe\x8eC!\xc0'
p480
tp481
Rp482
ag12
(g16
S'\xb5\xc6\xa0\x13B\x99D@'
p483
tp484
Rp485
asg25
Nsg27
F1.239399737396132
sg28
Nsg30
(inode
Node
p486
(dp487
g5
(inode
Node
p488
(dp489
g5
Nsg10
(lp490
g12
(g16
S'\xb3\n\x9b\x01.L!\xc0'
p491
tp492
Rp493
ag12
(g16
S'\xf4\xf6\xe7\xa2!\x99D@'
p494
tp495
Rp496
asg25
(lp497
I18
aI18
asg27
Nsg28
(lp498
I1740
aI2180
asg30
Nsg31
Nsbsg10
(lp499
g12
(g16
S'A\x87_MhC!\xc0'
p500
tp501
Rp502
ag12
(g16
S'"\x90}+\xa9\x98D@'
p503
tp504
Rp505
asg25
Nsg27
F1.2032104180587748
sg28
Nsg30
(inode
Node
p506
(dp507
g5
(inode
Node
p508
(dp509
g5
Nsg10
(lp510
g12
(g16
S'\x87\xf9\xf2\x02\xecG!\xc0'
p511
tp512
Rp513
ag12
(g16
S'\xc2S\xc8\x95z\x97D@'
p514
tp515
Rp516
asg25
(lp517
I19
aI19
aI19
aI19
asg27
Nsg28
(lp518
I134
aI2818
aI2887
aI3010
asg30
Nsg31
Nsbsg10
(lp519
g12
(g16
S'>\xe0\xff\x8a\xbbC!\xc0'
p520
tp521
Rp522
ag12
(g16
S'9\xf3n\xeb\xac\x98D@'
p523
tp524
Rp525
asg25
Nsg27
F1.0237730975455464
sg28
Nsg30
(inode
Node
p526
(dp527
g5
(inode
Node
p528
(dp529
g5
Nsg10
(lp530
g12
(g16
S'\xd4\x96:\xc8\xebU!\xc0'
p531
tp532
Rp533
ag12
(g16
S'\xd2S\xe4\x10q\x9cD@'
p534
tp535
Rp536
asg25
(lp537
I20
aI20
aI20
aI20
asg27
Nsg28
(lp538
I548
aI1121
aI1665
aI2054
asg30
Nsg31
Nsbsg10
(lp539
g12
(g16
S'N\xc4\xc4Z\x9fC!\xc0'
p540
tp541
Rp542
ag12
(g16
S'\\\x1ayN\xcb\x98D@'
p543
tp544
Rp545
asg25
Nsg27
F1.8851106460691767
sg28
Nsg30
(inode
Node
p546
(dp547
g5
Nsg10
(lp548
g12
(g16
S'\x1a\xfb\x92\x8d\x87B!\xc0'
p549
tp550
Rp551
ag12
(g16
S'\xef\x91\xcdU\x93\x98D@'
p552
tp553
Rp554
asg25
(lp555
I21
aI21
aI21
aI21
aI21
aI21
aI21
aI21
aI21
aI21
aI21
aI21
aI21
aI21
aI21
aI21
aI21
aI21
aI21
aI21
aI21
aI21
aI21
aI21
aI21
aI21
aI21
aI21
aI21
aI21
aI21
aI21
aI21
aI21
aI21
aI21
aI21
aI21
aI21
aI21
aI21
aI21
aI21
aI21
aI21
aI21
aI21
aI21
asg27
Nsg28
(lp556
I10
aI37
aI60
aI95
aI120
aI172
aI203
aI287
aI562
aI693
aI740
aI844
aI884
aI911
aI996
aI1029
aI1154
aI1254
aI1378
aI1423
aI1460
aI1471
aI1602
aI1650
aI1660
aI1708
aI1734
aI1775
aI1899
aI1929
aI1992
aI2104
aI2135
aI2182
aI2185
aI2187
aI2335
aI2399
aI2429
aI2505
aI2514
aI2573
aI2729
aI2731
aI2783
aI2873
aI2878
aI3007
asg30
Nsg31
Nsbsg31
g50
(g51
(I0
tp557
g53
tp558
Rp559
(I1
(I2
tp560
g16
I00
S'\xb8\x94\xf3\xc5\xde3!\xc0A+0du\x99D@'
p561
tp562
bsbsg31
g50
(g51
(I0
tp563
g53
tp564
Rp565
(I1
(I2
tp566
g16
I00
S'\xa9J[\\\xe3;!\xc0:?\xc5q\xe0\x99D@'
p567
tp568
bsbsg31
g50
(g51
(I0
tp569
g53
tp570
Rp571
(I1
(I2
tp572
g16
I00
S'\xa6F\xe8g\xea=!\xc0\x99\x0c\xc7\xf3\x19\x9aD@'
p573
tp574
bsbsg31
g50
(g51
(I0
tp575
g53
tp576
Rp577
(I1
(I2
tp578
g16
I00
S'R\xed\xd3\xf1\x98A!\xc0\x86!r\xfaz\x9aD@'
p579
tp580
bsbsg31
g50
(g51
(I0
tp581
g53
tp582
Rp583
(I1
(I2
tp584
g16
I00
S'2\x90g\x97oE!\xc0&\xab"\xdcd\x9aD@'
p585
tp586
bsbsg31
g50
(g51
(I0
tp587
g53
tp588
Rp589
(I1
(I2
tp590
g16
I00
S'\xdfS9\xed)I!\xc0S\xb11\xaf#\x9aD@'
p591
tp592
bsbsg31
g50
(g51
(I0
tp593
g53
tp594
Rp595
(I1
(I2
tp596
g16
I00
S'\xa5\xdb\x12\xb9\xe0L!\xc0s\xf2"\x13\xf0\x99D@'
p597
tp598
bsbsg31
g50
(g51
(I0
tp599
g53
tp600
Rp601
(I1
(I2
tp602
g16
I00
S'\xee\xb45"\x18O!\xc0\x8d\x99D\xbd\xe0\x99D@'
p603
tp604
bsbsg31
g50
(g51
(I0
tp605
g53
tp606
Rp607
(I1
(I2
tp608
g16
I00
S'p]1#\xbcM!\xc0\xf90{\xd9v\x9aD@'
p609
tp610
bsbsg31
g50
(g51
(I0
tp611
g53
tp612
Rp613
(I1
(I2
tp614
g16
I00
S'\xa3\xe5@\x0f\xb5M!\xc0\xcc*l\x06\xb8\x9aD@'
p615
tp616
bsbsg31
g50
(g51
(I0
tp617
g53
tp618
Rp619
(I1
(I2
tp620
g16
I00
S'\xf0\xdf\xbc8\xf1M!\xc0\xa5\xf8\xf8\x84\xec\x9aD@'
p621
tp622
bsbsg31
g50
(g51
(I0
tp623
g53
tp624
Rp625
(I1
(I2
tp626
g16
I00
S';\xc2i\xc1\x8bN!\xc0KxB\xaf?\x9bD@'
p627
tp628
bsbsg31
g50
(g51
(I0
tp629
g53
tp630
Rp631
(I1
(I2
tp632
g16
I00
S'\x85\xb3[\xcbdP!\xc0\x83\x87i\xdf\xdc\x9bD@'
p633
tp634
bsbsg31
g50
(g51
(I0
tp635
g53
tp636
Rp637
(I1
(I2
tp638
g16
I00
S'\xff@\xb9m\xdfS!\xc0\xb4\xaa%\x1d\xe5\x9cD@'
p639
tp640
bsbsg31
g50
(g51
(I0
tp641
g53
tp642
Rp643
(I1
(I2
tp644
g16
I00
S'\xc7-\xe6\xe7\x86V!\xc0\x01N\xef\xe2\xfd\x9cD@'
p645
tp646
bsbsg31
g50
(g51
(I0
tp647
g53
tp648
Rp649
(I1
(I2
tp650
g16
I00
S'G\x1f\xf3\x01\x81V!\xc0tz\xde\x8d\x05\x9dD@'
p651
tp652
bsbsg31
g50
(g51
(I0
tp653
g53
tp654
Rp655
(I1
(I2
tp656
g16
I00
S'\xc6\xdbJ\xaf\xcdV!\xc0a\xc4>\x01\x14\x9dD@'
p657
tp658
bsbsg10
(lp659
g12
(g16
S'\xb7\xd2\x0f\x1b\x8c8!\xc0'
p660
tp661
Rp662
ag12
(g16
S'\xd2\x1e27\xb5\x97D@'
p663
tp664
Rp665
asg25
Nsg27
F1.1359591264405966
sg28
Nsg30
(inode
Node
p666
(dp667
g5
(inode
Node
p668
(dp669
g5
Nsg10
(lp670
g12
(g16
S'B\x00\xa0\xfbe?!\xc0'
p671
tp672
Rp673
ag12
(g16
S"@'\x0f\xd7\xb8\x95D@"
p674
tp675
Rp676
asg25
(lp677
I5
aI5
aI5
aI5
aI5
aI5
aI5
aI5
aI5
aI5
aI5
aI5
aI5
aI5
aI5
aI5
aI5
aI5
aI5
aI5
aI5
aI5
aI5
aI5
aI5
aI5
aI5
aI5
aI5
aI5
aI5
aI5
aI5
aI5
aI5
asg27
Nsg28
(lp678
I42
aI144
aI312
aI442
aI472
aI497
aI545
aI657
aI735
aI739
aI882
aI966
aI972
aI1098
aI1190
aI1315
aI1324
aI1555
aI1637
aI1699
aI1701
aI1951
aI2059
aI2073
aI2112
aI2202
aI2235
aI2409
aI2465
aI2535
aI2608
aI2734
aI2778
aI2825
aI2997
asg30
Nsg31
Nsbsg10
(lp679
g12
(g16
S'\xd9`7\x97\x148!\xc0'
p680
tp681
Rp682
ag12
(g16
S'\x1bA1Bi\x97D@'
p683
tp684
Rp685
asg25
Nsg27
F1.0287977618973643
sg28
Nsg30
(inode
Node
p686
(dp687
g5
(inode
Node
p688
(dp689
g5
(inode
Node
p690
(dp691
g5
Nsg10
(lp692
g12
(g16
S'`\x04\x8d\x99DE!\xc0'
p693
tp694
Rp695
ag12
(g16
S'Z\x9b\xc6\xf6Z\x9aD@'
p696
tp697
Rp698
asg25
(lp699
I6
aI6
aI6
aI6
aI6
aI6
aI6
aI6
aI6
asg27
Nsg28
(lp700
I254
aI737
aI1159
aI1286
aI1716
aI2189
aI2381
aI2714
aI2846
asg30
Nsg31
Nsbsg10
(lp701
g12
(g16
S'\xdbBL\xb4\x83=!\xc0'
p702
tp703
Rp704
ag12
(g16
S"'\xae\x80\xb9E\x94D@"
p705
tp706
Rp707
asg25
Nsg27
F2.1111974506715145
sg28
Nsg30
(inode
Node
p708
(dp709
g5
(inode
Node
p710
(dp711
g5
Nsg10
(lp712
g12
(g16
S'_\\\xaa\xd2\x16W!\xc0'
p713
tp714
Rp715
ag12
(g16
S'x\x97\x8b\xf8N\x9eD@'
p716
tp717
Rp718
asg25
(lp719
I7
asg27
Nsg28
(lp720
I1861
asg30
Nsg31
Nsbsg10
(lp721
g12
(g16
S'o6\xe8\xbf\xe0;!\xc0'
p722
tp723
Rp724
ag12
(g16
S'(G\xb3{\xac\x97D@'
p725
tp726
Rp727
asg25
Nsg27
F1.0366767736668767
sg28
Nsg30
(inode
Node
p728
(dp729
g5
(inode
Node
p730
(dp731
g5
Nsg10
(lp732
g12
(g16
S'\x9a\xed\n}\xb0D!\xc0'
p733
tp734
Rp735
ag12
(g16
S'h\x04\x1b\xd7\xbf\x9aD@'
p736
tp737
Rp738
asg25
(lp739
I8
aI8
asg27
Nsg28
(lp740
I584
aI1306
asg30
Nsg31
Nsbsg10
(lp741
g12
(g16
S'\xd4\xefw\xfc\xa0=!\xc0'
p742
tp743
Rp744
ag12
(g16
S'\x1a\x9f\xc9\xfey\x97D@'
p745
tp746
Rp747
asg25
Nsg27
F1.1058359803163609
sg28
Nsg30
(inode
Node
p748
(dp749
g5
(inode
Node
p750
(dp751
g5
Nsg10
(lp752
g12
(g16
S'\xe9\x01=\x1eDP!\xc0'
p753
tp754
Rp755
ag12
(g16
S'\xf0\xd7\t\xd4\x07\x9bD@'
p756
tp757
Rp758
asg25
(lp759
I9
aI9
aI9
aI9
aI9
aI9
aI9
aI9
aI9
aI9
asg27
Nsg28
(lp760
I40
aI139
aI165
aI402
aI1376
aI1799
aI2151
aI2655
aI2962
aI2967
asg30
Nsg31
Nsbsg10
(lp761
g12
(g16
S'\x1f\x86\xd5\xfc\xa6=!\xc0'
p762
tp763
Rp764
ag12
(g16
S' \xfb(\x1f\x84\x97D@'
p765
tp766
Rp767
asg25
Nsg27
F1.041310565510215
sg28
Nsg30
(inode
Node
p768
(dp769
g5
(inode
Node
p770
(dp771
g5
Nsg10
(lp772
g12
(g16
S',\xb5\xdeo\xb4O!\xc0'
p773
tp774
Rp775
ag12
(g16
S'\x87\xc0\x91@\x83\x99D@'
p776
tp777
Rp778
asg25
(lp779
I10
aI10
asg27
Nsg28
(lp780
I1219
aI2539
asg30
Nsg31
Nsbsg10
(lp781
g12
(g16
S'\x1c\x8e\xc3o%<!\xc0'
p782
tp783
Rp784
ag12
(g16
S'\xb7&\xf23\x90\x97D@'
p785
tp786
Rp787
asg25
Nsg27
F1.0534992498314737
sg28
Nsg30
(inode
Node
p788
(dp789
g5
(inode
Node
p790
(dp791
g5
Nsg10
(lp792
g12
(g16
S'\xa0m5\xeb\x8cO!\xc0'
p793
tp794
Rp795
ag12
(g16
S'q\xe6Ws\x80\x99D@'
p796
tp797
Rp798
asg25
(lp799
I11
aI11
asg27
Nsg28
(lp800
I1313
aI2033
asg30
Nsg31
Nsbsg10
(lp801
g12
(g16
S'J\xfd\x89+)<!\xc0'
p802
tp803
Rp804
ag12
(g16
S'W\xb3\n\x136\x98D@'
p805
tp806
Rp807
asg25
Nsg27
F1.7835996998954409
sg28
Nsg30
(inode
Node
p808
(dp809
g5
(inode
Node
p810
(dp811
g5
Nsg10
(lp812
g12
(g16
S',\x9a\xceN\x063!\xc0'
p813
tp814
Rp815
ag12
(g16
S'\xee\xb5\xa0\xf7\xc6\x97D@'
p816
tp817
Rp818
asg25
(lp819
I12
aI12
asg27
Nsg28
(lp820
I432
aI2387
asg30
Nsg31
Nsbsg10
(lp821
g12
(g16
S'-s\x19Oy<!\xc0'
p822
tp823
Rp824
ag12
(g16
S'G>\xad\x1d\\\x98D@'
p825
tp826
Rp827
asg25
Nsg27
F0.9139769410765698
sg28
Nsg30
(inode
Node
p828
(dp829
g5
(inode
Node
p830
(dp831
g5
Nsg10
(lp832
g12
(g16
S'\xbag]\xa3\xe5@!\xc0'
p833
tp834
Rp835
ag12
(g16
S'YNB\xe9\x0b\x93D@'
p836
tp837
Rp838
asg25
(lp839
I13
asg27
Nsg28
(lp840
I2723
asg30
Nsg31
Nsbsg10
(lp841
g12
(g16
S'_\x92\x13\xc3\xda<!\xc0'
p842
tp843
Rp844
ag12
(g16
S'\xca.\xd4\x08\x8a\x98D@'
p845
tp846
Rp847
asg25
Nsg27
F0.9498428971883801
sg28
Nsg30
(inode
Node
p848
(dp849
g5
(inode
Node
p850
(dp851
g5
Nsg10
(lp852
g12
(g16
S'\xca6p\x07\xeaT!\xc0'
p853
tp854
Rp855
ag12
(g16
S'\x07~T\xc3~\x9dD@'
p856
tp857
Rp858
asg25
(lp859
I14
aI14
asg27
Nsg28
(lp860
I1040
aI1961
asg30
Nsg31
Nsbsg10
(lp861
g12
(g16
S'\xf8\xb4{\xaa\xfb<!\xc0'
p862
tp863
Rp864
ag12
(g16
S'\xfa\t\x15\xca\xf0\x98D@'
p865
tp866
Rp867
asg25
Nsg27
F0.9048040635920538
sg28
Nsg30
(inode
Node
p868
(dp869
g5
(inode
Node
p870
(dp871
g5
Nsg10
(lp872
g12
(g16
S'\xa3\xadJ"\xfb0!\xc0'
p873
tp874
Rp875
ag12
(g16
S'b\xbc\xe6U\x9d\xb5D@'
p876
tp877
Rp878
asg25
(lp879
I15
asg27
Nsg28
(lp880
I2911
asg30
Nsg31
Nsbsg10
(lp881
g12
(g16
S'\xa2\xd3\xd0\x9d\xec;!\xc0'
p882
tp883
Rp884
ag12
(g16
S'8K\x0f\x15\x92\x98D@'
p885
tp886
Rp887
asg25
Nsg27
F0.9548034186979777
sg28
Nsg30
(inode
Node
p888
(dp889
g5
(inode
Node
p890
(dp891
g5
Nsg10
(lp892
g12
(g16
S'V\x0e-\xb2\x9d?!\xc0'
p893
tp894
Rp895
ag12
(g16
S'\xd3\xa5\x7fI*\x93D@'
p896
tp897
Rp898
asg25
(lp899
I16
asg27
Nsg28
(lp900
I722
asg30
Nsg31
Nsbsg10
(lp901
g12
(g16
S'\x00v-\x9f\xa8C!\xc0'
p902
tp903
Rp904
ag12
(g16
S'\xd7X\x07\x03\x8e\x98D@'
p905
tp906
Rp907
asg25
Nsg27
F0.7371784466533408
sg28
Nsg30
(inode
Node
p908
(dp909
g5
(inode
Node
p910
(dp911
g5
Nsg10
(lp912
g12
(g16
S'\x16\x84\xf2>\x8eF!\xc0'
p913
tp914
Rp915
ag12
(g16
S'\x04=\xd4\xb6a\x94D@'
p916
tp917
Rp918
asg25
(lp919
I17
asg27
Nsg28
(lp920
I2707
asg30
Nsg31
Nsbsg10
(lp921
g12
(g16
S'Z\xaa\xd3\xda\x98C!\xc0'
p922
tp923
Rp924
ag12
(g16
S'\x85@\xd5\x84$\x99D@'
p925
tp926
Rp927
asg25
Nsg27
F0.7391921845524814
sg28
Nsg30
(inode
Node
p928
(dp929
g5
(inode
Node
p930
(dp931
g5
Nsg10
(lp932
g12
(g16
S'\x04\xff[\xc9\x8em!\xc0'
p933
tp934
Rp935
ag12
(g16
S'l\xaf\x05\xbd7\x9aD@'
p936
tp937
Rp938
asg25
(lp939
I18
asg27
Nsg28
(lp940
I1698
asg30
Nsg31
Nsbsg10
(lp941
g12
(g16
S'{\xba\xe4\x1f\x08C!\xc0'
p942
tp943
Rp944
ag12
(g16
S'/\xd8L\xf5\x18\x99D@'
p945
tp946
Rp947
asg25
Nsg27
F0.817498008663706
sg28
Nsg30
(inode
Node
p948
(dp949
g5
(inode
Node
p950
(dp951
g5
Nsg10
(lp952
g12
(g16
S'b2U0*]!\xc0'
p953
tp954
Rp955
ag12
(g16
S',\x9c\xa4\xf9c\x9aD@'
p956
tp957
Rp958
asg25
(lp959
I19
aI19
asg27
Nsg28
(lp960
I1838
aI2656
asg30
Nsg31
Nsbsg10
(lp961
g12
(g16
S'\xe2\xc2&\xd7\xb9B!\xc0'
p962
tp963
Rp964
ag12
(g16
S'\xe6\xf9\x1d\xd4\x0f\x99D@'
p965
tp966
Rp967
asg25
Nsg27
F0.7235079617993118
sg28
Nsg30
(inode
Node
p968
(dp969
g5
(inode
Node
p970
(dp971
g5
Nsg10
(lp972
g12
(g16
S'>yX\xa85\x1d!\xc0'
p973
tp974
Rp975
ag12
(g16
S'P5z5@\x9fD@'
p976
tp977
Rp978
asg25
(lp979
I20
aI20
aI20
aI20
aI20
aI20
asg27
Nsg28
(lp980
I294
aI665
aI671
aI821
aI2193
aI2822
asg30
Nsg31
Nsbsg10
(lp981
g12
(g16
S'\xd9\xb9W\xd1\x10C!\xc0'
p982
tp983
Rp984
ag12
(g16
S'\x8f\xd0\xb7\xfc\x99\x98D@'
p985
tp986
Rp987
asg25
Nsg27
F0.5848177484628349
sg28
Nsg30
(inode
Node
p988
(dp989
g5
Nsg10
(lp990
g12
(g16
S'\x91\xd1ds\x93H!\xc0'
p991
tp992
Rp993
ag12
(g16
S'H\xdeA\x05\xea\x97D@'
p994
tp995
Rp996
asg25
(lp997
I21
aI21
aI21
aI21
aI21
aI21
aI21
aI21
aI21
aI21
aI21
aI21
aI21
aI21
aI21
aI21
aI21
aI21
aI21
aI21
aI21
aI21
aI21
aI21
aI21
aI21
aI21
aI21
aI21
aI21
aI21
aI21
aI21
aI21
aI21
aI21
aI21
aI21
aI21
aI21
aI21
aI21
aI21
aI21
aI21
aI21
aI21
aI21
aI21
aI21
asg27
Nsg28
(lp998
I99
aI175
aI284
aI336
aI398
aI471
aI691
aI837
aI889
aI1184
aI1237
aI1277
aI1310
aI1385
aI1419
aI1443
aI1517
aI1546
aI1611
aI1645
aI1728
aI1747
aI1780
aI1830
aI1917
aI2049
aI2137
aI2171
aI2243
aI2257
aI2432
aI2455
aI2467
aI2468
aI2571
aI2583
aI2667
aI2705
aI2739
aI2767
aI2769
aI2772
aI2829
aI2834
aI2856
aI2871
aI2915
aI2928
aI2933
aI3014
asg30
Nsg31
Nsbsg31
g50
(g51
(I0
tp999
g53
tp1000
Rp1001
(I1
(I2
tp1002
g16
I00
S'\x11\xc8%\x8e<X!\xc0\xf1J\x92\xe7\xfa\x9eD@'
p1003
tp1004
bsbsg31
g50
(g51
(I0
tp1005
g53
tp1006
Rp1007
(I1
(I2
tp1008
g16
I00
S'wi\xc3aiX!\xc0\x9e\xf0\x12\x9c\xfa\x9eD@'
p1009
tp1010
bsbsg31
g50
(g51
(I0
tp1011
g53
tp1012
Rp1013
(I1
(I2
tp1014
g16
I00
S'\x10Y\xa4\x89wX!\xc0\x04\x1e\x18@\xf8\x9eD@'
p1015
tp1016
bsbsg31
g50
(g51
(I0
tp1017
g53
tp1018
Rp1019
(I1
(I2
tp1020
g16
I00
S'\x10Y\xa4\x89wX!\xc0Wx\x97\x8b\xf8\x9eD@'
p1021
tp1022
bsbsg31
g50
(g51
(I0
tp1023
g53
tp1024
Rp1025
(I1
(I2
tp1026
g16
I00
S']\xc2\xa1\xb7xX!\xc0\xb1\xc3\x98\xf4\xf7\x9eD@'
p1027
tp1028
bsbsg31
g50
(g51
(I0
tp1029
g53
tp1030
Rp1031
(I1
(I2
tp1032
g16
I00
S'\xaa+\x9f\xe5yX!\xc0\n\x0f\x9a]\xf7\x9eD@'
p1033
tp1034
bsbsg31
g50
(g51
(I0
tp1035
g53
tp1036
Rp1037
(I1
(I2
tp1038
g16
I00
S'wd\xac6\xffW!\xc0\xfe\x0f\xb0V\xed\x9eD@'
p1039
tp1040
bsbsg31
g50
(g51
(I0
tp1041
g53
tp1042
Rp1043
(I1
(I2
tp1044
g16
I00
S'*\x1d\xac\xffsX!\xc0Q\x87\x15n\xf9\x9eD@'
p1045
tp1046
bsbsg31
g50
(g51
(I0
tp1047
g53
tp1048
Rp1049
(I1
(I2
tp1050
g16
I00
S'Eh\x04\x1b\xd7W!\xc0\xcbM\xd4\xd2\xdc\x9eD@'
p1051
tp1052
bsbsg31
g50
(g51
(I0
tp1053
g53
tp1054
Rp1055
(I1
(I2
tp1056
g16
I00
S'\xc5v\xf7\x00\xddW!\xc0\xde=@\xf7\xe5\x9eD@'
p1057
tp1058
bsbsg31
g50
(g51
(I0
tp1059
g53
tp1060
Rp1061
(I1
(I2
tp1062
g16
I00
S'\xff\x97k\xd1\x02T!\xc0QMI\xd6\xe1\x9eD@'
p1063
tp1064
bsbsg31
g50
(g51
(I0
tp1065
g53
tp1066
Rp1067
(I1
(I2
tp1068
g16
I00
S'\xff\x97k\xd1\x02T!\xc0\x04\xe4K\xa8\xe0\x9eD@'
p1069
tp1070
bsbsg31
g50
(g51
(I0
tp1071
g53
tp1072
Rp1073
(I1
(I2
tp1074
g16
I00
S'e\xc5pu\x00T!\xc0^/M\x11\xe0\x9eD@'
p1075
tp1076
bsbsg31
g50
(g51
(I0
tp1077
g53
tp1078
Rp1079
(I1
(I2
tp1080
g16
I00
S'\xe4\xa3\xc5\x19\xc3T!\xc0\xf7\x1e.9\xee\x9eD@'
p1081
tp1082
bsbsg31
g50
(g51
(I0
tp1083
g53
tp1084
Rp1085
(I1
(I2
tp1086
g16
I00
S'd\xb2\xb8\xff\xc8T!\xc0\x17\x82\x1c\x940\x9fD@'
p1087
tp1088
bsbsg10
(lp1089
g12
(g16
S'?{\xd3\xe2\xfc8!\xc0'
p1090
tp1091
Rp1092
ag12
(g16
S'\xec\xfe\x89\x00\x9e\x97D@'
p1093
tp1094
Rp1095
asg25
Nsg27
F1.0557402424637272
sg28
Nsg30
(inode
Node
p1096
(dp1097
g5
(inode
Node
p1098
(dp1099
g5
(inode
Node
p1100
(dp1101
g5
Nsg10
(lp1102
g12
(g16
S'\xadc\x99\xbf\xc4L!\xc0'
p1103
tp1104
Rp1105
ag12
(g16
S'5\x0c\xde\xd5n\x98D@'
p1106
tp1107
Rp1108
asg25
(lp1109
I7
aI7
aI7
aI7
aI7
aI7
aI7
asg27
Nsg28
(lp1110
I702
aI1052
aI1811
aI2106
aI2727
aI2766
aI2935
asg30
Nsg31
Nsbsg10
(lp1111
g12
(g16
S'\xff&u1v<!\xc0'
p1112
tp1113
Rp1114
ag12
(g16
S'\xc30=\xedK\x97D@'
p1115
tp1116
Rp1117
asg25
Nsg27
F1.188665963047701
sg28
Nsg30
(inode
Node
p1118
(dp1119
g5
(inode
Node
p1120
(dp1121
g5
Nsg10
(lp1122
g12
(g16
S'\xe9\x9c\x9f\xe28H!\xc0'
p1123
tp1124
Rp1125
ag12
(g16
S'\x0f\xb7C\xc3b\x99D@'
p1126
tp1127
Rp1128
asg25
(lp1129
I8
aI8
aI8
aI8
aI8
aI8
asg27
Nsg28
(lp1130
I927
aI1553
aI1923
aI1996
aI2404
aI2949
asg30
Nsg31
Nsbsg10
(lp1131
g12
(g16
S'\xd0\x9e\xcb\xd4$5!\xc0'
p1132
tp1133
Rp1134
ag12
(g16
S'\xf6\xfaIkB\x98D@'
p1135
tp1136
Rp1137
asg25
Nsg27
F1.5885549519194213
sg28
Nsg30
(inode
Node
p1138
(dp1139
g5
(inode
Node
p1140
(dp1141
g5
Nsg10
(lp1142
g12
(g16
S'\xf7\xe5\xccv\x85B!\xc0'
p1143
tp1144
Rp1145
ag12
(g16
S'\x1a\x14\xcd\x03X\x9bD@'
p1146
tp1147
Rp1148
asg25
(lp1149
I9
aI9
asg27
Nsg28
(lp1150
I269
aI2273
asg30
Nsg31
Nsbsg10
(lp1151
g12
(g16
S'\xb2\x95\x981c4!\xc0'
p1152
tp1153
Rp1154
ag12
(g16
S'\x95\x83\x01\xfc\xf4\x97D@'
p1155
tp1156
Rp1157
asg25
Nsg27
F2.382284310620901
sg28
Nsg30
(inode
Node
p1158
(dp1159
g5
(inode
Node
p1160
(dp1161
g5
Nsg10
(lp1162
g12
(g16
S'\x94\x88\xf0/\x82V!\xc0'
p1163
tp1164
Rp1165
ag12
(g16
S'\xf9\x14\x00\xe3\x19\x9eD@'
p1166
tp1167
Rp1168
asg25
(lp1169
I10
asg27
Nsg28
(lp1170
I2009
asg30
Nsg31
Nsbsg10
(lp1171
g12
(g16
S'n\xaa(=W4!\xc0'
p1172
tp1173
Rp1174
ag12
(g16
S'\x0c#\xf1\xa4\xfa\x97D@'
p1175
tp1176
Rp1177
asg25
Nsg27
F2.828528550414466
sg28
Nsg30
(inode
Node
p1178
(dp1179
g5
(inode
Node
p1180
(dp1181
g5
(inode
Node
p1182
(dp1183
g5
Nsg10
(lp1184
g12
(g16
S'j\xf6\x86\xcd\xaf<!\xc0'
p1185
tp1186
Rp1187
ag12
(g16
S'\xf18]\xd0p\x98D@'
p1188
tp1189
Rp1190
asg25
(lp1191
I11
aI11
aI11
aI11
aI11
aI11
aI11
aI11
aI11
aI11
aI11
aI11
aI11
aI11
aI11
aI11
aI11
aI11
aI11
aI11
aI11
aI11
aI11
aI11
aI11
aI11
asg27
Nsg28
(lp1192
I70
aI143
aI369
aI384
aI493
aI593
aI747
aI1057
aI1065
aI1144
aI1178
aI1274
aI1296
aI1352
aI1359
aI1491
aI1527
aI1604
aI1833
aI2253
aI2424
aI2425
aI2500
aI2698
aI2801
aI2932
asg30
Nsg31
Nsbsg10
(lp1193
g12
(g16
S';\xce\x9c\x0e\x9a2!\xc0'
p1194
tp1195
Rp1196
ag12
(g16
S'\x1fQ\xac(\x86\x97D@'
p1197
tp1198
Rp1199
asg25
Nsg27
F1.185611938204588
sg28
Nsg30
(inode
Node
p1200
(dp1201
g5
(inode
Node
p1202
(dp1203
g5
Nsg10
(lp1204
g12
(g16
S'=I\xbaf\xf25!\xc0'
p1205
tp1206
Rp1207
ag12
(g16
S'\x00X\x1d9\xd2\x97D@'
p1208
tp1209
Rp1210
asg25
(lp1211
I12
aI12
aI12
asg27
Nsg28
(lp1212
I2592
aI2653
aI2881
asg30
Nsg31
Nsbsg10
(lp1213
g12
(g16
S'\x84\xb51v\xc2<!\xc0'
p1214
tp1215
Rp1216
ag12
(g16
S'%\x8cfe\xbb\x97D@'
p1217
tp1218
Rp1219
asg25
Nsg27
F2.159875913869419
sg28
Nsg30
(inode
Node
p1220
(dp1221
g5
(inode
Node
p1222
(dp1223
g5
Nsg10
(lp1224
g12
(g16
S'ywd\xac6W!\xc0'
p1225
tp1226
Rp1227
ag12
(g16
S'\xe5\x0c\xc5\x1do\x9eD@'
p1228
tp1229
Rp1230
asg25
(lp1231
I13
asg27
Nsg28
(lp1232
I2115
asg30
Nsg31
Nsbsg10
(lp1233
g12
(g16
S'OM9\x89<=!\xc0'
p1234
tp1235
Rp1236
ag12
(g16
S'\xfc\xe08\x97o\x98D@'
p1237
tp1238
Rp1239
asg25
Nsg27
F0.700675430168482
sg28
Nsg30
(inode
Node
p1240
(dp1241
g5
(inode
Node
p1242
(dp1243
g5
Nsg10
(lp1244
g12
(g16
S'\xa3\xadJ"\xfb0!\xc0'
p1245
tp1246
Rp1247
ag12
(g16
S'b\xbc\xe6U\x9d\xb5D@'
p1248
tp1249
Rp1250
asg25
(lp1251
I14
asg27
Nsg28
(lp1252
I2670
asg30
Nsg31
Nsbsg10
(lp1253
g12
(g16
S'\xbd\xf4\x95\xa6\xa7<!\xc0'
p1254
tp1255
Rp1256
ag12
(g16
S'\xe2;1\xeb\xc5\x98D@'
p1257
tp1258
Rp1259
asg25
Nsg27
F1.0195555359085118
sg28
Nsg30
(inode
Node
p1260
(dp1261
g5
(inode
Node
p1262
(dp1263
g5
Nsg10
(lp1264
g12
(g16
S'(G\x01\xa2`.!\xc0'
p1265
tp1266
Rp1267
ag12
(g16
S'\xa2~\x17\xb6f\x95D@'
p1268
tp1269
Rp1270
asg25
(lp1271
I15
asg27
Nsg28
(lp1272
I2735
asg30
Nsg31
Nsbsg10
(lp1273
g12
(g16
S't\xbe!;\xd7<!\xc0'
p1274
tp1275
Rp1276
ag12
(g16
S'\x15\x00\xd2\xf6X\x98D@'
p1277
tp1278
Rp1279
asg25
Nsg27
F1.0106282517410259
sg28
Nsg30
(inode
Node
p1280
(dp1281
g5
(inode
Node
p1282
(dp1283
g5
Nsg10
(lp1284
g12
(g16
S'\x11n2\xaa\x0c;!\xc0'
p1285
tp1286
Rp1287
ag12
(g16
S'\x156\x03\\\x90\x91D@'
p1288
tp1289
Rp1290
asg25
(lp1291
I16
asg27
Nsg28
(lp1292
I3008
asg30
Nsg31
Nsbsg10
(lp1293
g12
(g16
S'8*\xcd\x05\xe3<!\xc0'
p1294
tp1295
Rp1296
ag12
(g16
S'P\xa1\x05\x94\xc4\x98D@'
p1297
tp1298
Rp1299
asg25
Nsg27
F1.0349776978983583
sg28
Nsg30
(inode
Node
p1300
(dp1301
g5
(inode
Node
p1302
(dp1303
g5
Nsg10
(lp1304
g12
(g16
S'\x96\xe8,\xb3\x08U!\xc0'
p1305
tp1306
Rp1307
ag12
(g16
S"h'\x83\xa3\xe4\x95D@"
p1308
tp1309
Rp1310
asg25
(lp1311
I17
aI17
asg27
Nsg28
(lp1312
I957
aI2142
asg30
Nsg31
Nsbsg10
(lp1313
g12
(g16
S'\xe0h\xdc$\xb2<!\xc0'
p1314
tp1315
Rp1316
ag12
(g16
S'\xbe\x95\x8a\xc2\xef\x98D@'
p1317
tp1318
Rp1319
asg25
Nsg27
F1.265675507325192
sg28
Nsg30
(inode
Node
p1320
(dp1321
g5
(inode
Node
p1322
(dp1323
g5
Nsg10
(lp1324
g12
(g16
S':\xc7\x80\xec\xf5N!\xc0'
p1325
tp1326
Rp1327
ag12
(g16
S'\xe6\xb1fd\x90\x98D@'
p1328
tp1329
Rp1330
asg25
(lp1331
I18
aI18
asg27
Nsg28
(lp1332
I1130
aI1725
asg30
Nsg31
Nsbsg10
(lp1333
g12
(g16
S'6\xf9j\x88\xacB!\xc0'
p1334
tp1335
Rp1336
ag12
(g16
S'\x14\x84\xeeQ\xfd\x98D@'
p1337
tp1338
Rp1339
asg25
Nsg27
F1.214401637160976
sg28
Nsg30
(inode
Node
p1340
(dp1341
g5
(inode
Node
p1342
(dp1343
g5
Nsg10
(lp1344
g12
(g16
S'#\xa3\x03\x92\xb0?!\xc0'
p1345
tp1346
Rp1347
ag12
(g16
S'\x8c\x85!r\xfa\x96D@'
p1348
tp1349
Rp1350
asg25
(lp1351
I19
asg27
Nsg28
(lp1352
I2934
asg30
Nsg31
Nsbsg10
(lp1353
g12
(g16
S'\xcc\xe5\x98\xc4(C!\xc0'
p1354
tp1355
Rp1356
ag12
(g16
S'oh+J\x10\x99D@'
p1357
tp1358
Rp1359
asg25
Nsg27
F1.14113943508375
sg28
Nsg30
(inode
Node
p1360
(dp1361
g5
(inode
Node
p1362
(dp1363
g5
Nsg10
(lp1364
g12
(g16
S'\x8d\x9b\x1ah>A!\xc0'
p1365
tp1366
Rp1367
ag12
(g16
S'\x92xy:W\x95D@'
p1368
tp1369
Rp1370
asg25
(lp1371
I20
aI20
aI20
aI20
asg27
Nsg28
(lp1372
I51
aI222
aI1182
aI2503
asg30
Nsg31
Nsbsg10
(lp1373
g12
(g16
S'\xc0\x19F\x8b}C!\xc0'
p1374
tp1375
Rp1376
ag12
(g16
S'2\x94n\xa6\x1d\x99D@'
p1377
tp1378
Rp1379
asg25
Nsg27
F1.206618220172634
sg28
Nsg30
(inode
Node
p1380
(dp1381
g5
(inode
Node
p1382
(dp1383
g5
Nsg10
(lp1384
g12
(g16
S'{\xdd"0\xd6G!\xc0'
p1385
tp1386
Rp1387
ag12
(g16
S'\xe1\xec\xd62\x19\x98D@'
p1388
tp1389
Rp1390
asg25
(lp1391
I21
aI21
aI21
asg27
Nsg28
(lp1392
I1438
aI1969
aI2337
asg30
Nsg31
Nsbsg10
(lp1393
g12
(g16
S'\xd1\r\x8e\x14\xceC!\xc0'
p1394
tp1395
Rp1396
ag12
(g16
S'S"\xca\x99j\x99D@'
p1397
tp1398
Rp1399
asg25
Nsg27
F1.1054252602312762
sg28
Nsg30
(inode
Node
p1400
(dp1401
g5
(inode
Node
p1402
(dp1403
g5
Nsg10
(lp1404
g12
(g16
S'_\\\xaa\xd2\x16W!\xc0'
p1405
tp1406
Rp1407
ag12
(g16
S'x\x97\x8b\xf8N\x9eD@'
p1408
tp1409
Rp1410
asg25
(lp1411
I22
asg27
Nsg28
(lp1412
I2480
asg30
Nsg31
Nsbsg10
(lp1413
g12
(g16
S'\xf9Rb[\xb5C!\xc0'
p1414
tp1415
Rp1416
ag12
(g16
S'@>\xa5\xf9\xbb\x98D@'
p1417
tp1418
Rp1419
asg25
Nsg27
F1.0640534416542347
sg28
Nsg30
(inode
Node
p1420
(dp1421
g5
(inode
Node
p1422
(dp1423
g5
Nsg10
(lp1424
g12
(g16
S'\x1ekF\x06\xb9W!\xc0'
p1425
tp1426
Rp1427
ag12
(g16
S'\\<\xbc\xe7\xc0\x98D@'
p1428
tp1429
Rp1430
asg25
(lp1431
I23
aI23
asg27
Nsg28
(lp1432
I623
aI2561
asg30
Nsg31
Nsbsg10
(lp1433
g12
(g16
S'\xc3"\x1d\xaa\x06D!\xc0'
p1434
tp1435
Rp1436
ag12
(g16
S'\x12Dt\x94\xe0\x98D@'
p1437
tp1438
Rp1439
asg25
Nsg27
F1.0077252400953265
sg28
Nsg30
(inode
Node
p1440
(dp1441
g5
Nsg10
(lp1442
g12
(g16
S'q\x92(\xac;C!\xc0'
p1443
tp1444
Rp1445
ag12
(g16
S'\xf2R\xda\xb0\xe0\x98D@'
p1446
tp1447
Rp1448
asg25
(lp1449
I24
aI24
aI24
aI24
aI24
aI24
aI24
aI24
aI24
aI24
aI24
aI24
aI24
aI24
aI24
aI24
aI24
aI24
aI24
aI24
aI24
aI24
aI24
aI24
aI24
aI24
aI24
aI24
aI24
aI24
aI24
aI24
aI24
aI24
aI24
aI24
aI24
aI24
aI24
aI24
aI24
aI24
aI24
aI24
aI24
aI24
aI24
aI24
aI24
aI24
asg27
Nsg28
(lp1450
I79
aI160
aI286
aI290
aI344
aI372
aI391
aI420
aI428
aI474
aI499
aI581
aI704
aI895
aI910
aI1021
aI1059
aI1150
aI1261
aI1278
aI1300
aI1319
aI1386
aI1390
aI1435
aI1441
aI1530
aI1638
aI1666
aI1715
aI1777
aI1784
aI1856
aI1862
aI1897
aI1901
aI1920
aI1927
aI1994
aI2055
aI2126
aI2225
aI2358
aI2361
aI2376
aI2689
aI2703
aI2752
aI2963
aI3018
asg30
Nsg31
Nsbsg31
g50
(g51
(I0
tp1451
g53
tp1452
Rp1453
(I1
(I2
tp1454
g16
I00
S'\x0ek*\x8b\xc2.!\xc0?X\xc6\x86n\x9eD@'
p1455
tp1456
bsbsg31
g50
(g51
(I0
tp1457
g53
tp1458
Rp1459
(I1
(I2
tp1460
g16
I00
S'nLOX\xe21!\xc0\x85\n\x0e/\x88\x9eD@'
p1461
tp1462
bsbsg31
g50
(g51
(I0
tp1463
g53
tp1464
Rp1465
(I1
(I2
tp1466
g16
I00
S'\x82\x1b)[$5!\xc0D\x14\x937\xc0\x9eD@'
p1467
tp1468
bsbsg31
g50
(g51
(I0
tp1469
g53
tp1470
Rp1471
(I1
(I2
tp1472
g16
I00
S'\x17c`\x1d\xc77!\xc0k\x9d\xb8\x1c\xaf\x9eD@'
p1473
tp1474
bsbsg31
g50
(g51
(I0
tp1475
g53
tp1476
Rp1477
(I1
(I2
tp1478
g16
I00
S'\xf8\xc6\x10\x00\x1c;!\xc0\x8b5\\\xe4\x9e\x9eD@'
p1479
tp1480
bsbsg31
g50
(g51
(I0
tp1481
g53
tp1482
Rp1483
(I1
(I2
tp1484
g16
I00
S'\xf2@d\x91&>!\xc07Ou\xc8\xcd\x9eD@'
p1485
tp1486
bsbsg31
g50
(g51
(I0
tp1487
g53
tp1488
Rp1489
(I1
(I2
tp1490
g16
I00
S"\xd25\x93o\xb6A!\xc07\xa6',\xf1\x9eD@"
p1491
tp1492
bsbsg31
g50
(g51
(I0
tp1493
g53
tp1494
Rp1495
(I1
(I2
tp1496
g16
I00
S'd\x05\xbf\r1F!\xc0\x0bDO\xca\xa4\x9eD@'
p1497
tp1498
bsbsg31
g50
(g51
(I0
tp1499
g53
tp1500
Rp1501
(I1
(I2
tp1502
g16
I00
S'E\x12\xbd\x8cbI!\xc0^\xf5\x80y\xc8\x9eD@'
p1503
tp1504
bsbsg31
g50
(g51
(I0
tp1505
g53
tp1506
Rp1507
(I1
(I2
tp1508
g16
I00
S'\xd9A%\xaecL!\xc0\x1eQ\xa1\xba\xb9\x9eD@'
p1509
tp1510
bsbsg31
g50
(g51
(I0
tp1511
g53
tp1512
Rp1513
(I1
(I2
tp1514
g16
I00
S'\xbfeN\x97\xc5L!\xc0\x84a\xc0\x92\xab\x9eD@'
p1515
tp1516
bsbsg31
g50
(g51
(I0
tp1517
g53
tp1518
Rp1519
(I1
(I2
tp1520
g16
I00
S'\xbe\x13\xb3^\x0cM!\xc0\x8b5\\\xe4\x9e\x9eD@'
p1521
tp1522
bsbsg31
g50
(g51
(I0
tp1523
g53
tp1524
Rp1525
(I1
(I2
tp1526
g16
I00
S'S>\x04U\xa3O!\xc04\xa1IbI\x9dD@'
p1527
tp1528
bsbsg10
(lp1529
g12
(g16
S'pD*Z\x1e4!\xc0'
p1530
tp1531
Rp1532
ag12
(g16
S'\x0ft\x82\x9b\xf5\x97D@'
p1533
tp1534
Rp1535
asg25
Nsg27
F1.0269419692214057
sg28
Nsg30
(inode
Node
p1536
(dp1537
g5
(inode
Node
p1538
(dp1539
g5
Nsg10
(lp1540
g12
(g16
S'm\xe6\x90\xd4BA!\xc0'
p1541
tp1542
Rp1543
ag12
(g16
S'$\xd0`S\xe7\x93D@'
p1544
tp1545
Rp1546
asg25
(lp1547
I12
asg27
Nsg28
(lp1548
I280
asg30
Nsg31
Nsbsg10
(lp1549
g12
(g16
S'\xb7\xae*\x9a\xb44!\xc0'
p1550
tp1551
Rp1552
ag12
(g16
S'\xc1\xa5\xe9\xfb%\x98D@'
p1553
tp1554
Rp1555
asg25
Nsg27
F1.037285863089077
sg28
Nsg30
(inode
Node
p1556
(dp1557
g5
(inode
Node
p1558
(dp1559
g5
Nsg10
(lp1560
g12
(g16
S'\x06\x9c\xa5d9A!\xc0'
p1561
tp1562
Rp1563
ag12
(g16
S'\xd7\x18tB\xe8\x90D@'
p1564
tp1565
Rp1566
asg25
(lp1567
I13
asg27
Nsg28
(lp1568
I193
asg30
Nsg31
Nsbsg10
(lp1569
g12
(g16
S'\x99f\xba\xd7I3!\xc0'
p1570
tp1571
Rp1572
ag12
(g16
S'\xfe&L\xbf`\x98D@'
p1573
tp1574
Rp1575
asg25
Nsg27
F1.0754692125117564
sg28
Nsg30
(inode
Node
p1576
(dp1577
g5
(inode
Node
p1578
(dp1579
g5
Nsg10
(lp1580
g12
(g16
S"'\xf8e\xae\xcfC!\xc0"
p1581
tp1582
Rp1583
ag12
(g16
S'\xbf\xc8\xc7\xad\xc7\x96D@'
p1584
tp1585
Rp1586
asg25
(lp1587
I14
aI14
aI14
aI14
aI14
aI14
aI14
asg27
Nsg28
(lp1588
I383
aI475
aI1554
aI1808
aI2615
aI2863
aI2974
asg30
Nsg31
Nsbsg10
(lp1589
g12
(g16
S'\xc2/[S\x0e3!\xc0'
p1590
tp1591
Rp1592
ag12
(g16
S'\x9e2\x96\xfbc\x98D@'
p1593
tp1594
Rp1595
asg25
Nsg27
F1.030016978185086
sg28
Nsg30
(inode
Node
p1596
(dp1597
g5
(inode
Node
p1598
(dp1599
g5
Nsg10
(lp1600
g12
(g16
S'0\x8f\xf8\xd4/"!\xc0'
p1601
tp1602
Rp1603
ag12
(g16
S'\x91\xad\xac0\xbc\x9bD@'
p1604
tp1605
Rp1606
asg25
(lp1607
I15
aI15
aI15
aI15
aI15
aI15
aI15
aI15
aI15
aI15
aI15
aI15
aI15
aI15
aI15
aI15
aI15
aI15
aI15
aI15
aI15
aI15
aI15
aI15
aI15
aI15
aI15
aI15
asg27
Nsg28
(lp1608
I73
aI272
aI489
aI564
aI710
aI909
aI919
aI974
aI1015
aI1179
aI1197
aI1612
aI1762
aI1795
aI1908
aI2002
aI2025
aI2125
aI2347
aI2349
aI2357
aI2562
aI2611
aI2713
aI2742
aI2773
aI3002
aI3025
asg30
Nsg31
Nsbsg10
(lp1609
g12
(g16
S'\x9b\x0f\x13r\x023!\xc0'
p1610
tp1611
Rp1612
ag12
(g16
S'"Nj\x856\x98D@'
p1613
tp1614
Rp1615
asg25
Nsg27
F1.0170331008995441
sg28
Nsg30
(inode
Node
p1616
(dp1617
g5
(inode
Node
p1618
(dp1619
g5
(inode
Node
p1620
(dp1621
g5
Nsg10
(lp1622
g12
(g16
S'\xf8$\xa1\x12\xd4:!\xc0'
p1623
tp1624
Rp1625
ag12
(g16
S'\xaf\xab\xd2\x04u\x99D@'
p1626
tp1627
Rp1628
asg25
(lp1629
I16
aI16
aI16
aI16
aI16
aI16
aI16
aI16
aI16
aI16
aI16
aI16
aI16
aI16
aI16
aI16
aI16
aI16
aI16
aI16
aI16
aI16
aI16
aI16
aI16
aI16
aI16
aI16
aI16
aI16
aI16
aI16
aI16
aI16
aI16
aI16
aI16
aI16
asg27
Nsg28
(lp1630
I32
aI58
aI430
aI478
aI572
aI661
aI835
aI839
aI894
aI960
aI1032
aI1170
aI1171
aI1195
aI1203
aI1217
aI1342
aI1439
aI1581
aI1634
aI1700
aI1758
aI1827
aI1868
aI1904
aI1944
aI2051
aI2075
aI2085
aI2102
aI2164
aI2565
aI2589
aI2612
aI2688
aI2695
aI2720
aI2782
asg30
Nsg31
Nsbsg10
(lp1631
g12
(g16
S'\xe5_\xb6\x83\xb3,!\xc0'
p1632
tp1633
Rp1634
ag12
(g16
S'U\xe7\xaa\xec\x8c\x99D@'
p1635
tp1636
Rp1637
asg25
Nsg27
F2.522489965852633
sg28
Nsg30
(inode
Node
p1638
(dp1639
g5
Nsg10
(lp1640
g12
(g16
S'\xac\x18U"\xc0?!\xc0'
p1641
tp1642
Rp1643
ag12
(g16
S':N6\x07\x1e\x98D@'
p1644
tp1645
Rp1646
asg25
(lp1647
I17
aI17
aI17
aI17
aI17
aI17
aI17
aI17
aI17
aI17
aI17
aI17
aI17
aI17
aI17
aI17
aI17
aI17
aI17
aI17
aI17
aI17
aI17
aI17
aI17
aI17
aI17
aI17
aI17
aI17
aI17
asg27
Nsg28
(lp1648
I23
aI138
aI250
aI253
aI418
aI615
aI646
aI761
aI816
aI1250
aI1267
aI1269
aI1322
aI1427
aI1528
aI1541
aI1607
aI1609
aI1680
aI1741
aI1885
aI1894
aI2001
aI2408
aI2464
aI2587
aI2701
aI2726
aI2828
aI2839
aI3017
asg30
Nsg31
Nsbsg31
g50
(g51
(I0
tp1649
g53
tp1650
Rp1651
(I1
(I2
tp1652
g16
I00
S'\xfd\xf8K\x8b\xfaT!\xc0(\xeex\x93\xdf\x98D@'
p1653
tp1654
bsbsg10
(lp1655
g12
(g16
S'\xf8\xc9@_A5!\xc0'
p1656
tp1657
Rp1658
ag12
(g16
S'`\x03\xc9L\xa8\x97D@'
p1659
tp1660
Rp1661
asg25
Nsg27
F1.0152400856855583
sg28
Nsg30
(inode
Node
p1662
(dp1663
g5
(inode
Node
p1664
(dp1665
g5
Nsg10
(lp1666
g12
(g16
S'Q\xf8=rV>!\xc0'
p1667
tp1668
Rp1669
ag12
(g16
S'\xa6\x8fR|M\x98D@'
p1670
tp1671
Rp1672
asg25
(lp1673
I17
aI17
aI17
aI17
aI17
aI17
aI17
aI17
aI17
aI17
aI17
aI17
aI17
aI17
aI17
aI17
aI17
aI17
aI17
aI17
aI17
aI17
aI17
aI17
aI17
aI17
aI17
aI17
aI17
aI17
aI17
aI17
aI17
aI17
aI17
aI17
aI17
aI17
aI17
aI17
aI17
aI17
aI17
aI17
aI17
aI17
asg27
Nsg28
(lp1674
I21
aI63
aI114
aI147
aI195
aI241
aI281
aI324
aI502
aI558
aI596
aI834
aI860
aI900
aI949
aI981
aI1035
aI1058
aI1063
aI1074
aI1199
aI1481
aI1563
aI1798
aI1809
aI1968
aI1984
aI2014
aI2018
aI2031
aI2093
aI2199
aI2206
aI2293
aI2311
aI2377
aI2393
aI2506
aI2569
aI2652
aI2708
aI2712
aI2781
aI2807
aI2808
aI2996
asg30
Nsg31
Nsbsg10
(lp1675
g12
(g16
S'\xa2\xb3\xcc"\x14;!\xc0'
p1676
tp1677
Rp1678
ag12
(g16
S'\xb3T\xc1\xbf\xd7\x97D@'
p1679
tp1680
Rp1681
asg25
Nsg27
F1.2101329900283426
sg28
Nsg30
(inode
Node
p1682
(dp1683
g5
(inode
Node
p1684
(dp1685
g5
Nsg10
(lp1686
g12
(g16
S'&\xcfP7\xabI!\xc0'
p1687
tp1688
Rp1689
ag12
(g16
S'\x98bX\x0f\xa9\x99D@'
p1690
tp1691
Rp1692
asg25
(lp1693
I18
aI18
aI18
aI18
aI18
asg27
Nsg28
(lp1694
I50
aI156
aI659
aI1233
aI2287
asg30
Nsg31
Nsbsg10
(lp1695
g12
(g16
S'\xd8\xf8\xc7\x02\xce9!\xc0'
p1696
tp1697
Rp1698
ag12
(g16
S'f\x0c\xae\xe8\x1d\x98D@'
p1699
tp1700
Rp1701
asg25
Nsg27
F1.0193502013960802
sg28
Nsg30
(inode
Node
p1702
(dp1703
g5
(inode
Node
p1704
(dp1705
g5
Nsg10
(lp1706
g12
(g16
S'\x9c\xda\x19\xa6\xb64!\xc0'
p1707
tp1708
Rp1709
ag12
(g16
S'\\Z\r\x89{\x93D@'
p1710
tp1711
Rp1712
asg25
(lp1713
I19
aI19
asg27
Nsg28
(lp1714
I1888
aI2088
asg30
Nsg31
Nsbsg10
(lp1715
g12
(g16
S'y\xef\x03\xeb\x93;!\xc0'
p1716
tp1717
Rp1718
ag12
(g16
S'd\xf1\xf6{\xbd\x97D@'
p1719
tp1720
Rp1721
asg25
Nsg27
F1.012519037592536
sg28
Nsg30
(inode
Node
p1722
(dp1723
g5
(inode
Node
p1724
(dp1725
g5
Nsg10
(lp1726
g12
(g16
S'\xae\x80B=}@!\xc0'
p1727
tp1728
Rp1729
ag12
(g16
S'4c\xd1t\xf6\x92D@'
p1730
tp1731
Rp1732
asg25
(lp1733
I20
aI20
aI20
aI20
asg27
Nsg28
(lp1734
I41
aI2064
aI2331
aI2968
asg30
Nsg31
Nsbsg10
(lp1735
g12
(g16
S'\xd5\xb0\x13_ >!\xc0'
p1736
tp1737
Rp1738
ag12
(g16
S'\\\x13o\x9a\xa5\x97D@'
p1739
tp1740
Rp1741
asg25
Nsg27
F1.2834372442566222
sg28
Nsg30
(inode
Node
p1742
(dp1743
g5
(inode
Node
p1744
(dp1745
g5
Nsg10
(lp1746
g12
(g16
S'\xe1C\x89\x96<V!\xc0'
p1747
tp1748
Rp1749
ag12
(g16
S'{\xd9v\xda\x1a\x99D@'
p1750
tp1751
Rp1752
asg25
(lp1753
I21
aI21
aI21
asg27
Nsg28
(lp1754
I1569
aI2919
aI2927
asg30
Nsg31
Nsbsg10
(lp1755
g12
(g16
S'\x05\xd8-\xad\xc3=!\xc0'
p1756
tp1757
Rp1758
ag12
(g16
S'\xf2\xb7\x87\xa7\xde\x97D@'
p1759
tp1760
Rp1761
asg25
Nsg27
F1.0237122918311548
sg28
Nsg30
(inode
Node
p1762
(dp1763
g5
(inode
Node
p1764
(dp1765
g5
Nsg10
(lp1766
g12
(g16
S'\x1b\x7f\xa2\xb2a5!\xc0'
p1767
tp1768
Rp1769
ag12
(g16
S'\x93r\xf79>\x94D@'
p1770
tp1771
Rp1772
asg25
(lp1773
I22
aI22
aI22
asg27
Nsg28
(lp1774
I1623
aI2362
aI2941
asg30
Nsg31
Nsbsg10
(lp1775
g12
(g16
S'\x93E\xab\xa4\xdf<!\xc0'
p1776
tp1777
Rp1778
ag12
(g16
S'\xda\xf2\xdb!\x0f\x98D@'
p1779
tp1780
Rp1781
asg25
Nsg27
F1.163179955245807
sg28
Nsg30
(inode
Node
p1782
(dp1783
g5
(inode
Node
p1784
(dp1785
g5
Nsg10
(lp1786
g12
(g16
S'$\xc2\xbf\x08\x1aC!\xc0'
p1787
tp1788
Rp1789
ag12
(g16
S'\xfc\x05\xbba\xdb\x96D@'
p1790
tp1791
Rp1792
asg25
(lp1793
I23
aI23
aI23
aI23
aI23
aI23
aI23
aI23
aI23
asg27
Nsg28
(lp1794
I121
aI541
aI883
aI1688
aI1851
aI1892
aI2219
aI2322
aI2754
asg30
Nsg31
Nsbsg10
(lp1795
g12
(g16
S'j\x9d=\xec"=!\xc0'
p1796
tp1797
Rp1798
ag12
(g16
S'3K\x98\x88l\x98D@'
p1799
tp1800
Rp1801
asg25
Nsg27
F1.0219301314331322
sg28
Nsg30
(inode
Node
p1802
(dp1803
g5
(inode
Node
p1804
(dp1805
g5
(inode
Node
p1806
(dp1807
g5
(inode
Node
p1808
(dp1809
g5
Nsg10
(lp1810
g12
(g16
S'\x96!\x8euqc!\xc0'
p1811
tp1812
Rp1813
ag12
(g16
S'u\x00\xc4]\xbd\x98D@'
p1814
tp1815
Rp1816
asg25
(lp1817
I24
asg27
Nsg28
(lp1818
I2159
asg30
Nsg31
Nsbsg10
(lp1819
g12
(g16
S'\xf1\xcdc\x0fg;!\xc0'
p1820
tp1821
Rp1822
ag12
(g16
S'\xf9&XH\xe2\x98D@'
p1823
tp1824
Rp1825
asg25
Nsg27
F1.8653003641124881
sg28
Nsg30
(inode
Node
p1826
(dp1827
g5
(inode
Node
p1828
(dp1829
g5
Nsg10
(lp1830
g12
(g16
S'\x86\x1f\x9cO\x1dW!\xc0'
p1831
tp1832
Rp1833
ag12
(g16
S'\xd8\r\xdb\x16e\x9eD@'
p1834
tp1835
Rp1836
asg25
(lp1837
I25
aI25
asg27
Nsg28
(lp1838
I13
aI2119
asg30
Nsg31
Nsbsg10
(lp1839
g12
(g16
S'W\x81>\xe4\x8eB!\xc0'
p1840
tp1841
Rp1842
ag12
(g16
S'\x85 8\xab\x06\x99D@'
p1843
tp1844
Rp1845
asg25
Nsg27
F1.6096600922179118
sg28
Nsg30
(inode
Node
p1846
(dp1847
g5
(inode
Node
p1848
(dp1849
g5
Nsg10
(lp1850
g12
(g16
S'K\xc7\x9cg\xecS!\xc0'
p1851
tp1852
Rp1853
ag12
(g16
S'\x87\xf9\xf2\x02\xec\x95D@'
p1854
tp1855
Rp1856
asg25
(lp1857
I26
aI26
aI26
asg27
Nsg28
(lp1858
I561
aI600
aI2346
asg30
Nsg31
Nsbsg10
(lp1859
g12
(g16
S'\x00wz\xc1\xc2B!\xc0'
p1860
tp1861
Rp1862
ag12
(g16
S'\xf2\xea`\x90\xe6\x98D@'
p1863
tp1864
Rp1865
asg25
Nsg27
F0.9633685004789152
sg28
Nsg30
(inode
Node
p1866
(dp1867
g5
(inode
Node
p1868
(dp1869
g5
Nsg10
(lp1870
g12
(g16
S'\x07\xea\x94G72!\xc0'
p1871
tp1872
Rp1873
ag12
(g16
S'\x1c\x0b\n\x832\x95D@'
p1874
tp1875
Rp1876
asg25
(lp1877
I27
asg27
Nsg28
(lp1878
I965
asg30
Nsg31
Nsbsg10
(lp1879
g12
(g16
S'\x01\x82\xf8>\x18C!\xc0'
p1880
tp1881
Rp1882
ag12
(g16
S'\xa2\xf5\xb3\x17\xcf\x98D@'
p1883
tp1884
Rp1885
asg25
Nsg27
F1.0639636892255178
sg28
Nsg30
(inode
Node
p1886
(dp1887
g5
(inode
Node
p1888
(dp1889
g5
Nsg10
(lp1890
g12
(g16
S's\x0e\x9e\tMB!\xc0'
p1891
tp1892
Rp1893
ag12
(g16
S'\x9d\x85=\xed\xf0\x95D@'
p1894
tp1895
Rp1896
asg25
(lp1897
I28
aI28
aI28
asg27
Nsg28
(lp1898
I140
aI546
aI777
asg30
Nsg31
Nsbsg10
(lp1899
g12
(g16
S'\x1b\xda\x00l@D!\xc0'
p1900
tp1901
Rp1902
ag12
(g16
S'Hi6\x8f\xc3\x98D@'
p1903
tp1904
Rp1905
asg25
Nsg27
F1.3109405816088482
sg28
Nsg30
(inode
Node
p1906
(dp1907
g5
(inode
Node
p1908
(dp1909
g5
Nsg10
(lp1910
g12
(g16
S'\xd2s\x0b]\x89P!\xc0'
p1911
tp1912
Rp1913
ag12
(g16
S'C\x1dV\xb8\xe5\x9bD@'
p1914
tp1915
Rp1916
asg25
(lp1917
I29
aI29
aI29
aI29
aI29
asg27
Nsg28
(lp1918
I199
aI1196
aI1679
aI1687
aI2220
asg30
Nsg31
Nsbsg10
(lp1919
g12
(g16
S'N\xfdH\xeeGD!\xc0'
p1920
tp1921
Rp1922
ag12
(g16
S'\x80p\xed\x8a\xeb\x98D@'
p1923
tp1924
Rp1925
asg25
Nsg27
F1.1674798052145052
sg28
Nsg30
(inode
Node
p1926
(dp1927
g5
Nsg10
(lp1928
g12
(g16
S'\x8a,H\x92\xb0B!\xc0'
p1929
tp1930
Rp1931
ag12
(g16
S'e\xa9\xe1\x19\x8d\x98D@'
p1932
tp1933
Rp1934
asg25
(lp1935
I30
aI30
aI30
aI30
aI30
aI30
aI30
aI30
aI30
aI30
aI30
aI30
aI30
aI30
aI30
aI30
aI30
aI30
aI30
aI30
aI30
aI30
aI30
aI30
aI30
aI30
aI30
aI30
aI30
aI30
aI30
aI30
aI30
aI30
aI30
aI30
aI30
aI30
aI30
aI30
aI30
aI30
aI30
aI30
aI30
aI30
aI30
asg27
Nsg28
(lp1936
I31
aI56
aI85
aI87
aI191
aI213
aI244
aI259
aI316
aI335
aI422
aI486
aI515
aI569
aI610
aI647
aI782
aI803
aI847
aI896
aI941
aI987
aI1127
aI1155
aI1291
aI1328
aI1365
aI1393
aI1448
aI1515
aI1536
aI1544
aI1684
aI1759
aI1768
aI1815
aI1883
aI2100
aI2124
aI2288
aI2431
aI2463
aI2525
aI2641
aI2788
aI2794
aI2891
asg30
Nsg31
Nsbsg31
g50
(g51
(I0
tp1937
g53
tp1938
Rp1939
(I1
(I2
tp1940
g16
I00
S'qU\xd9wE0!\xc0~\x90e\xc1\xc4\x97D@'
p1941
tp1942
bsbsg31
g50
(g51
(I0
tp1943
g53
tp1944
Rp1945
(I1
(I2
tp1946
g16
I00
S'@\x157n1/!\xc0b\xf3qm\xa8\x98D@'
p1947
tp1948
bsbsg31
g50
(g51
(I0
tp1949
g53
tp1950
Rp1951
(I1
(I2
tp1952
g16
I00
S'A\x7f\xa1G\x8c.!\xc0\xf5\x82Os\xf2\x98D@'
p1953
tp1954
bsbsg31
g50
(g51
(I0
tp1955
g53
tp1956
Rp1957
(I1
(I2
tp1958
g16
I00
S'\xdbQ\x9c\xa3\x8e.!\xc0\xbb&\xa45\x06\x99D@'
p1959
tp1960
bsbsg31
g50
(g51
(I0
tp1961
g53
tp1962
Rp1963
(I1
(I2
tp1964
g16
I00
S'\x0fa\xfc4\xee-!\xc0\x88/\x13EH\x99D@'
p1965
tp1966
bsbsg31
g50
(g51
(I0
tp1967
g53
tp1968
Rp1969
(I1
(I2
tp1970
g16
I00
S'[\xec\xf6Ye.!\xc0u?\xa7 ?\x99D@'
p1971
tp1972
bsbsg10
(lp1973
g12
(g16
S'\x84u\x0fG\xc1<!\xc0'
p1974
tp1975
Rp1976
ag12
(g16
S'\x97\xbe"\xeb\xe7\x98D@'
p1977
tp1978
Rp1979
asg25
Nsg27
F0.0874203661217635
sg28
Nsg30
(inode
Node
p1980
(dp1981
g5
Nsg10
(lp1982
g12
(g16
S'\xa5K\xff\x92TP!\xc0'
p1983
tp1984
Rp1985
ag12
(g16
S'\xb9r\xf6\xce\xe8\x97D@'
p1986
tp1987
Rp1988
asg25
(lp1989
I25
aI25
aI25
aI25
asg27
Nsg28
(lp1990
I881
aI921
aI1774
aI2271
asg30
Nsg31
Nsbsg31
g50
(g51
(I0
tp1991
g53
tp1992
Rp1993
(I1
(I2
tp1994
g16
I00
S'\xb8w\r\xfa\xd23!\xc0a\xe0\xb9\xf7p\x99D@'
p1995
tp1996
bsbsg10
(lp1997
g12
(g16
S'\xbf:\x89\x03\xe3;!\xc0'
p1998
tp1999
Rp2000
ag12
(g16
S'\x86\xc6`\x12{\x98D@'
p2001
tp2002
Rp2003
asg25
Nsg27
F0.02756584045361679
sg28
Nsg30
(inode
Node
p2004
(dp2005
g5
Nsg10
(lp2006
g12
(g16
S'\xe0\x9c\x11\xa5\xbd9!\xc0'
p2007
tp2008
Rp2009
ag12
(g16
S'p\xcf\xf3\xa7\x8d\x94D@'
p2010
tp2011
Rp2012
asg25
(lp2013
I25
aI25
asg27
Nsg28
(lp2014
I179
aI1560
asg30
Nsg31
Nsbsg31
g50
(g51
(I0
tp2015
g53
tp2016
Rp2017
(I1
(I2
tp2018
g16
I00
S'\xeb\xa8j\x82\xa83!\xc0\xc1\x1c=~o\x99D@'
p2019
tp2020
bsbsg31
g50
(g51
(I0
tp2021
g53
tp2022
Rp2023
(I1
(I2
tp2024
g16
I00
S'\x99\xb9\xc0\xe5\xb16!\xc0\x81\t\xdc\xba\x9b\x99D@'
p2025
tp2026
bsbsg31
g50
(g51
(I0
tp2027
g53
tp2028
Rp2029
(I1
(I2
tp2030
g16
I00
S'-\xee?2\x1d:!\xc0 $\x0b\x98\xc0\x99D@'
p2031
tp2032
bsbsg31
g50
(g51
(I0
tp2033
g53
tp2034
Rp2035
(I1
(I2
tp2036
g16
I00
S'Z/\x86r\xa2=!\xc0\xc6\xa3T\xc2\x13\x9aD@'
p2037
tp2038
bsbsg31
g50
(g51
(I0
tp2039
g53
tp2040
Rp2041
(I1
(I2
tp2042
g16
I00
S'\xef\x8e\x8c\xd5\xe6?!\xc0Y\x16L\xfcQ\x9aD@'
p2043
tp2044
bsbsg31
g50
(g51
(I0
tp2045
g53
tp2046
Rp2047
(I1
(I2
tp2048
g16
I00
S'\xcf\xdam\x17\x9aC!\xc0_{fI\x80\x9aD@'
p2049
tp2050
bsbsg31
g50
(g51
(I0
tp2051
g53
tp2052
Rp2053
(I1
(I2
tp2054
g16
I00
S'\xc9\xb0\x8a72G!\xc0\xc6\x17\xed\xf1B\x9aD@'
p2055
tp2056
bsbsg31
g50
(g51
(I0
tp2057
g53
tp2058
Rp2059
(I1
(I2
tp2060
g16
I00
S'\x10\x08t&mJ!\xc0\x93\xfe^\n\x0f\x9aD@'
p2061
tp2062
bsbsg31
g50
(g51
(I0
tp2063
g53
tp2064
Rp2065
(I1
(I2
tp2066
g16
I00
S'>\xed\xf0\xd7dM!\xc0\x87\x8b\xdc\xd3\xd5\x99D@'
p2067
tp2068
bsbsg31
g50
(g51
(I0
tp2069
g53
tp2070
Rp2071
(I1
(I2
tp2072
g16
I00
S'q\x92\xe6\x8fiM!\xc0\x8d|^\xf1\xd4\x99D@'
p2073
tp2074
bsbsg31
g50
(g51
(I0
tp2075
g53
tp2076
Rp2077
(I1
(I2
tp2078
g16
I00
S'\x86\xc6\x13A\x9cO!\xc0\x13|\xd3\xf4\xd9\x99D@'
p2079
tp2080
bsbsg31
g50
(g51
(I0
tp2081
g53
tp2082
Rp2083
(I1
(I2
tp2084
g16
I00
S'\xbb\xd0\\\xa7\x91N!\xc0`\x02\xb7\xee\xe6\x99D@'
p2085
tp2086
bsbsg31
g50
(g51
(I0
tp2087
g53
tp2088
Rp2089
(I1
(I2
tp2090
g16
I00
S'\xf0\xdf\xbc8\xf1M!\xc0\x12\x17\x80F\xe9\x9aD@'
p2091
tp2092
bsbsg31
g50
(g51
(I0
tp2093
g53
tp2094
Rp2095
(I1
(I2
tp2096
g16
I00
S'\xd6U\x81Z\x0cN!\xc0\xbe\xd9\xe6\xc6\xf4\x9aD@'
p2097
tp2098
bsbsg31
g50
(g51
(I0
tp2099
g53
tp2100
Rp2101
(I1
(I2
tp2102
g16
I00
S'\x08\xae\xf2\x04\xc2N!\xc0$\x0c\x03\x96\\\x9bD@'
p2103
tp2104
bsbsg31
g50
(g51
(I0
tp2105
g53
tp2106
Rp2107
(I1
(I2
tp2108
g16
I00
S'\xeb\xe5w\x9a\xccP!\xc0\xe3\xfd\xb8\xfd\xf2\x9bD@'
p2109
tp2110
bsbsg31
g50
(g51
(I0
tp2111
g53
tp2112
Rp2113
(I1
(I2
tp2114
g16
I00
S'c+hZbU!\xc0\x95\xbb\xcf\xf1\xd1\x9cD@'
p2115
tp2116
bsbsg31
g50
(g51
(I0
tp2117
g53
tp2118
Rp2119
(I1
(I2
tp2120
g16
I00
S'\xc7J\xcc\xb3\x92V!\xc0\xd5\x08\xfdL\xbd\x9cD@'
p2121
tp2122
bsbsg10
(lp2123
g12
(g16
S'`;H\xdcr8!\xc0'
p2124
tp2125
Rp2126
ag12
(g16
S'\x83\x04\x87n\xf4\x97D@'
p2127
tp2128
Rp2129
asg25
Nsg27
F1.0006809466024333
sg28
Nsg30
(inode
Node
p2130
(dp2131
g5
(inode
Node
p2132
(dp2133
g5
(inode
Node
p2134
(dp2135
g5
Nsg10
(lp2136
g12
(g16
S'&\xdflsc\n!\xc0'
p2137
tp2138
Rp2139
ag12
(g16
S'\x98\xf8\xa3\xa83\x97D@'
p2140
tp2141
Rp2142
asg25
(lp2143
I8
aI8
aI8
aI8
aI8
aI8
aI8
aI8
aI8
asg27
Nsg28
(lp2144
I187
aI574
aI801
aI1432
aI1748
aI2130
aI2435
aI2478
aI2857
asg30
Nsg31
Nsbsg10
(lp2145
g12
(g16
S'\xd7r\x18}\xb67!\xc0'
p2146
tp2147
Rp2148
ag12
(g16
S'T\x847\x07k\x9dD@'
p2149
tp2150
Rp2151
asg25
Nsg27
F1.6892628707030983
sg28
Nsg30
(inode
Node
p2152
(dp2153
g5
(inode
Node
p2154
(dp2155
g5
Nsg10
(lp2156
g12
(g16
S'\xe8\xa4\xf7\x8d\xaf=!\xc0'
p2157
tp2158
Rp2159
ag12
(g16
S'\x94\xfc\x88_\xb1\x96D@'
p2160
tp2161
Rp2162
asg25
(lp2163
I9
aI9
aI9
aI9
aI9
aI9
aI9
aI9
aI9
asg27
Nsg28
(lp2164
I366
aI903
aI1111
aI1280
aI1496
aI1539
aI2061
aI2087
aI2305
asg30
Nsg31
Nsbsg10
(lp2165
g12
(g16
S'\x1b\xf6u\xec\x88D!\xc0'
p2166
tp2167
Rp2168
ag12
(g16
S'(l\x18\x1a^\x98D@'
p2169
tp2170
Rp2171
asg25
Nsg27
F2.1823068153539324
sg28
Nsg30
(inode
Node
p2172
(dp2173
g5
(inode
Node
p2174
(dp2175
g5
Nsg10
(lp2176
g12
(g16
S'1\xd1\xd5*\x83H!\xc0'
p2177
tp2178
Rp2179
ag12
(g16
S'\x9d\x1fS\x00"\x98D@'
p2180
tp2181
Rp2182
asg25
(lp2183
I10
aI10
aI10
aI10
aI10
aI10
aI10
aI10
aI10
aI10
aI10
asg27
Nsg28
(lp2184
I247
aI264
aI362
aI444
aI505
aI728
aI1786
aI1965
aI2091
aI2414
aI2762
asg30
Nsg31
Nsbsg10
(lp2185
g12
(g16
S'\xf8f9\x05\xba<!\xc0'
p2186
tp2187
Rp2188
ag12
(g16
S'>[\xf2\xef\x87\x98D@'
p2189
tp2190
Rp2191
asg25
Nsg27
F1.0289091065580847
sg28
Nsg30
(inode
Node
p2192
(dp2193
g5
(inode
Node
p2194
(dp2195
g5
Nsg10
(lp2196
g12
(g16
S' b\x83\x85\x93H!\xc0'
p2197
tp2198
Rp2199
ag12
(g16
S'\xacq6\x1d\x01\x95D@'
p2200
tp2201
Rp2202
asg25
(lp2203
I11
aI11
aI11
aI11
aI11
aI11
asg27
Nsg28
(lp2204
I1099
aI1163
aI1337
aI1404
aI1469
aI1767
asg30
Nsg31
Nsbsg10
(lp2205
g12
(g16
S'\x99\xcc\x8b&*B!\xc0'
p2206
tp2207
Rp2208
ag12
(g16
S'9\xdc4\xa3\x0c\x99D@'
p2209
tp2210
Rp2211
asg25
Nsg27
F1.0672299961272251
sg28
Nsg30
(inode
Node
p2212
(dp2213
g5
Nsg10
(lp2214
g12
(g16
S'{M\x0f\n\xcaC!\xc0'
p2215
tp2216
Rp2217
ag12
(g16
S'\xa8\xc5\xe0aZ\x99D@'
p2218
tp2219
Rp2220
asg25
(lp2221
I12
aI12
aI12
aI12
aI12
aI12
aI12
aI12
aI12
aI12
aI12
aI12
aI12
aI12
aI12
aI12
aI12
aI12
aI12
aI12
aI12
aI12
aI12
aI12
aI12
aI12
aI12
aI12
aI12
aI12
aI12
aI12
aI12
aI12
aI12
aI12
aI12
aI12
aI12
aI12
aI12
aI12
aI12
aI12
aI12
aI12
aI12
aI12
asg27
Nsg28
(lp2222
I47
aI100
aI189
aI215
aI380
aI726
aI901
aI915
aI923
aI925
aI956
aI1051
aI1230
aI1270
aI1341
aI1456
aI1593
aI1682
aI1779
aI1950
aI2016
aI2063
aI2110
aI2175
aI2260
aI2294
aI2310
aI2312
aI2339
aI2342
aI2365
aI2422
aI2469
aI2481
aI2496
aI2538
aI2614
aI2629
aI2642
aI2650
aI2733
aI2748
aI2809
aI2858
aI2869
aI2872
aI2880
aI3009
asg30
Nsg31
Nsbsg31
g50
(g51
(I0
tp2223
g53
tp2224
Rp2225
(I1
(I2
tp2226
g16
I00
S'\xd2\xc5\xa6\x95BP!\xc0\x115\xd1\xe7\xa3\x9eD@'
p2227
tp2228
bsbsg31
g50
(g51
(I0
tp2229
g53
tp2230
Rp2231
(I1
(I2
tp2232
g16
I00
S'\x84f\xd7\xbd\x15Q!\xc0\xf1ba\x88\x9c\x9eD@'
p2233
tp2234
bsbsg31
g50
(g51
(I0
tp2235
g53
tp2236
Rp2237
(I1
(I2
tp2238
g16
I00
S'hB\x93\xc4\x92R!\xc0xE\xf0\xbf\x95\x9eD@'
p2239
tp2240
bsbsg31
g50
(g51
(I0
tp2241
g53
tp2242
Rp2243
(I1
(I2
tp2244
g16
I00
S'\xe0+\xba\xf5\x9aV!\xc0\x91\xb7\\\xfd\xd8\x9eD@'
p2245
tp2246
bsbsg10
(lp2247
g12
(g16
S'\x8d/\xdd\x1aB7!\xc0'
p2248
tp2249
Rp2250
ag12
(g16
S'\x8f\xa9Ne\xd9\x97D@'
p2251
tp2252
Rp2253
asg25
Nsg27
F1.0067667034431067
sg28
Nsg30
(inode
Node
p2254
(dp2255
g5
(inode
Node
p2256
(dp2257
g5
(inode
Node
p2258
(dp2259
g5
Nsg10
(lp2260
g12
(g16
S'R\xd5\xbe\xaew9!\xc0'
p2261
tp2262
Rp2263
ag12
(g16
S'eOH=\xf3\x99D@'
p2264
tp2265
Rp2266
asg25
(lp2267
I9
aI9
aI9
aI9
aI9
aI9
aI9
aI9
aI9
aI9
aI9
aI9
aI9
aI9
aI9
aI9
aI9
aI9
aI9
aI9
aI9
aI9
aI9
aI9
aI9
aI9
asg27
Nsg28
(lp2268
I59
aI365
aI607
aI711
aI746
aI767
aI863
aI874
aI986
aI1167
aI1220
aI1251
aI1285
aI1533
aI1603
aI1863
aI2029
aI2053
aI2074
aI2094
aI2120
aI2308
aI2521
aI2527
aI2593
aI2931
asg30
Nsg31
Nsbsg10
(lp2269
g12
(g16
S'\xf0\x12\x9c\xfa@4!\xc0'
p2270
tp2271
Rp2272
ag12
(g16
S'\x81\xbc\xa2\xe2\x13\x99D@'
p2273
tp2274
Rp2275
asg25
Nsg27
F1.855826564891838
sg28
Nsg30
(inode
Node
p2276
(dp2277
g5
(inode
Node
p2278
(dp2279
g5
Nsg10
(lp2280
g12
(g16
S'\xdc\xd8\xecH\xf5-!\xc0'
p2281
tp2282
Rp2283
ag12
(g16
S'u><K\x90\x95D@'
p2284
tp2285
Rp2286
asg25
(lp2287
I10
asg27
Nsg28
(lp2288
I568
asg30
Nsg31
Nsbsg10
(lp2289
g12
(g16
S'(Lg\x89\n<!\xc0'
p2290
tp2291
Rp2292
ag12
(g16
S'\xc1\xff\xb89\xe4\x97D@'
p2293
tp2294
Rp2295
asg25
Nsg27
F1.8779213372264612
sg28
Nsg30
(inode
Node
p2296
(dp2297
g5
(inode
Node
p2298
(dp2299
g5
Nsg10
(lp2300
g12
(g16
S'\xc1%\xb8Bu:!\xc0'
p2301
tp2302
Rp2303
ag12
(g16
S'H\x88\xd5\xa8X\x96D@'
p2304
tp2305
Rp2306
asg25
(lp2307
I11
aI11
aI11
aI11
aI11
aI11
aI11
aI11
aI11
aI11
aI11
aI11
aI11
aI11
aI11
aI11
aI11
aI11
aI11
aI11
aI11
aI11
aI11
aI11
aI11
aI11
aI11
aI11
aI11
aI11
aI11
aI11
aI11
aI11
aI11
aI11
aI11
aI11
aI11
aI11
aI11
aI11
aI11
aI11
aI11
aI11
aI11
aI11
aI11
asg27
Nsg28
(lp2308
I93
aI201
aI220
aI301
aI352
aI403
aI435
aI536
aI570
aI636
aI780
aI809
aI836
aI980
aI1050
aI1069
aI1080
aI1156
aI1275
aI1284
aI1436
aI1494
aI1531
aI1793
aI1963
aI1974
aI2023
aI2133
aI2162
aI2178
aI2215
aI2229
aI2233
aI2277
aI2317
aI2356
aI2471
aI2519
aI2680
aI2681
aI2753
aI2765
aI2803
aI2840
aI2864
aI2947
aI2953
aI2975
aI2983
asg30
Nsg31
Nsbsg10
(lp2309
g12
(g16
S'\xad\x11\x10\x17*;!\xc0'
p2310
tp2311
Rp2312
ag12
(g16
S'\xe47?\xff\xa7\x98D@'
p2313
tp2314
Rp2315
asg25
Nsg27
F2.193417574584725
sg28
Nsg30
(inode
Node
p2316
(dp2317
g5
(inode
Node
p2318
(dp2319
g5
Nsg10
(lp2320
g12
(g16
S'b1\xeaZ{G!\xc0'
p2321
tp2322
Rp2323
ag12
(g16
S'\x98\xfe\xa7\x1f\x15\x99D@'
p2324
tp2325
Rp2326
asg25
(lp2327
I12
aI12
aI12
aI12
aI12
aI12
aI12
asg27
Nsg28
(lp2328
I61
aI931
aI1018
aI2089
aI2276
aI2665
aI2669
asg30
Nsg31
Nsbsg10
(lp2329
g12
(g16
S'ju\xf4\xfc*;!\xc0'
p2330
tp2331
Rp2332
ag12
(g16
S'/\x02\xa4\xb8\xa7\x99D@'
p2333
tp2334
Rp2335
asg25
Nsg27
F2.758266616258949
sg28
Nsg30
(inode
Node
p2336
(dp2337
g5
(inode
Node
p2338
(dp2339
g5
Nsg10
(lp2340
g12
(g16
S'(\x05[\xe8\tI!\xc0'
p2341
tp2342
Rp2343
ag12
(g16
S'\xc9z\xab0\xba\x99D@'
p2344
tp2345
Rp2346
asg25
(lp2347
I13
aI13
aI13
aI13
aI13
aI13
aI13
asg27
Nsg28
(lp2348
I43
aI278
aI703
aI1242
aI1387
aI1535
aI2820
asg30
Nsg31
Nsbsg10
(lp2349
g12
(g16
S'6\xf0%\x91\xbe;!\xc0'
p2350
tp2351
Rp2352
ag12
(g16
S'Y\xc3\x11\xf2\xcc\x97D@'
p2353
tp2354
Rp2355
asg25
Nsg27
F1.000631144111814
sg28
Nsg30
(inode
Node
p2356
(dp2357
g5
(inode
Node
p2358
(dp2359
g5
Nsg10
(lp2360
g12
(g16
S'a\xfa^CpD \xc0'
p2361
tp2362
Rp2363
ag12
(g16
S'\xe9\xee:\x1b\xf2\xadD@'
p2364
tp2365
Rp2366
asg25
(lp2367
I14
asg27
Nsg28
(lp2368
I2955
asg30
Nsg31
Nsbsg10
(lp2369
g12
(g16
S'*\xfa\xa4_\xb2:!\xc0'
p2370
tp2371
Rp2372
ag12
(g16
S' \xbfKO\xa0\x97D@'
p2373
tp2374
Rp2375
asg25
Nsg27
F0.9726694792445961
sg28
Nsg30
(inode
Node
p2376
(dp2377
g5
(inode
Node
p2378
(dp2379
g5
Nsg10
(lp2380
g12
(g16
S'\x88.\xa8o\x99G!\xc0'
p2381
tp2382
Rp2383
ag12
(g16
S'\x00\x02\xd6\xaa]\x98D@'
p2384
tp2385
Rp2386
asg25
(lp2387
I15
aI15
asg27
Nsg28
(lp2388
I152
aI1913
asg30
Nsg31
Nsbsg10
(lp2389
g12
(g16
S'\x07$a\xdf\x0e?!\xc0'
p2390
tp2391
Rp2392
ag12
(g16
S'(.\xc7+\xa0\x97D@'
p2393
tp2394
Rp2395
asg25
Nsg27
F1.841814321472134
sg28
Nsg30
(inode
Node
p2396
(dp2397
g5
(inode
Node
p2398
(dp2399
g5
Nsg10
(lp2400
g12
(g16
S'\xca\xf9b\xef\xc57!\xc0'
p2401
tp2402
Rp2403
ag12
(g16
S'\x8cg\xd0\xd0\xbf\x97D@'
p2404
tp2405
Rp2406
asg25
(lp2407
I16
aI16
aI16
aI16
asg27
Nsg28
(lp2408
I274
aI576
aI752
aI1394
asg30
Nsg31
Nsbsg10
(lp2409
g12
(g16
S'\xe1(\xefB\x03<!\xc0'
p2410
tp2411
Rp2412
ag12
(g16
S'Z\xdb\xcf\xf5\xc5\x97D@'
p2413
tp2414
Rp2415
asg25
Nsg27
F1.010180293136724
sg28
Nsg30
(inode
Node
p2416
(dp2417
g5
(inode
Node
p2418
(dp2419
g5
Nsg10
(lp2420
g12
(g16
S'\xdc\xfa\x08\xb1\x07D!\xc0'
p2421
tp2422
Rp2423
ag12
(g16
S'*\x90\xad\xf0\xc4\x98D@'
p2424
tp2425
Rp2426
asg25
(lp2427
I17
aI17
aI17
aI17
aI17
aI17
aI17
aI17
aI17
aI17
aI17
aI17
aI17
aI17
aI17
aI17
aI17
aI17
aI17
aI17
aI17
aI17
asg27
Nsg28
(lp2428
I44
aI86
aI145
aI219
aI266
aI307
aI410
aI554
aI566
aI788
aI1025
aI1243
aI1574
aI1631
aI1697
aI1841
aI2111
aI2418
aI2548
aI2552
aI2628
aI2877
asg30
Nsg31
Nsbsg10
(lp2429
g12
(g16
S'\xfa3\x01Y\x03?!\xc0'
p2430
tp2431
Rp2432
ag12
(g16
S'\x1f\xbbQ[\x86\x97D@'
p2433
tp2434
Rp2435
asg25
Nsg27
F1.014568694152207
sg28
Nsg30
(inode
Node
p2436
(dp2437
g5
(inode
Node
p2438
(dp2439
g5
Nsg10
(lp2440
g12
(g16
S'\x13\xe1\x9e\xfc\xf7.!\xc0'
p2441
tp2442
Rp2443
ag12
(g16
S"6h'\x98K\x98D@"
p2444
tp2445
Rp2446
asg25
(lp2447
I18
aI18
aI18
aI18
aI18
aI18
aI18
aI18
aI18
aI18
aI18
aI18
aI18
aI18
aI18
aI18
aI18
aI18
aI18
aI18
aI18
aI18
aI18
asg27
Nsg28
(lp2448
I406
aI503
aI586
aI664
aI733
aI926
aI1043
aI1129
aI1152
aI1223
aI1396
aI1402
aI1418
aI1431
aI1523
aI1864
aI1872
aI2186
aI2292
aI2392
aI2849
aI2908
aI2989
asg30
Nsg31
Nsbsg10
(lp2449
g12
(g16
S'\xf7*\\/\xe8;!\xc0'
p2450
tp2451
Rp2452
ag12
(g16
S"\x9a\xffOn'\x97D@"
p2453
tp2454
Rp2455
asg25
Nsg27
F1.3299508023922204
sg28
Nsg30
(inode
Node
p2456
(dp2457
g5
Nsg10
(lp2458
g12
(g16
S'\x05t\xc9\x19\xd5C!\xc0'
p2459
tp2460
Rp2461
ag12
(g16
S'x\x1b];\xf0\x98D@'
p2462
tp2463
Rp2464
asg25
(lp2465
I19
aI19
aI19
aI19
aI19
aI19
aI19
aI19
aI19
aI19
aI19
aI19
aI19
aI19
aI19
aI19
aI19
aI19
aI19
aI19
aI19
aI19
aI19
aI19
aI19
aI19
aI19
aI19
aI19
aI19
aI19
aI19
aI19
aI19
aI19
aI19
aI19
aI19
aI19
aI19
aI19
aI19
aI19
aI19
asg27
Nsg28
(lp2466
I103
aI161
aI225
aI257
aI262
aI373
aI395
aI556
aI656
aI700
aI701
aI828
aI843
aI852
aI885
aI940
aI995
aI1073
aI1133
aI1207
aI1209
aI1259
aI1366
aI1433
aI1599
aI1685
aI1832
aI1850
aI1909
aI1952
aI1982
aI2052
aI2066
aI2069
aI2201
aI2300
aI2388
aI2417
aI2591
aI2601
aI2796
aI2900
aI2964
aI3001
asg30
Nsg31
Nsbsg31
g50
(g51
(I0
tp2467
g53
tp2468
Rp2469
(I1
(I2
tp2470
g16
I00
S'\x99eO\x02\x9bS!\xc0\xb5\xa9\xbaG6\x99D@'
p2471
tp2472
bsbsg31
g50
(g51
(I0
tp2473
g53
tp2474
Rp2475
(I1
(I2
tp2476
g16
I00
S'\xb8\xe9\xcf~\xa4P!\xc0\xe0\x9c\x11\xa5\xbd\x99D@'
p2477
tp2478
bsbsg31
g50
(g51
(I0
tp2479
g53
tp2480
Rp2481
(I1
(I2
tp2482
g16
I00
S'\xd4\xd3G\xe0\x0fO!\xc0z\xc6\xbed\xe3\x99D@'
p2483
tp2484
bsbsg31
g50
(g51
(I0
tp2485
g53
tp2486
Rp2487
(I1
(I2
tp2488
g16
I00
S'\x84\x9b\x8c*\xc3P!\xc0\xad\xf7\x1b\xed\xb8\x99D@'
p2489
tp2490
bsbsg31
g50
(g51
(I0
tp2491
g53
tp2492
Rp2493
(I1
(I2
tp2494
g16
I00
S"p\x97\xfd\xba\xd3M!\xc0?\x91'I\xd7\x9aD@"
p2495
tp2496
bsbsg31
g50
(g51
(I0
tp2497
g53
tp2498
Rp2499
(I1
(I2
tp2500
g16
I00
S'\xd6U\x81Z\x0cN!\xc0\x9e$]3\xf9\x9aD@'
p2501
tp2502
bsbsg31
g50
(g51
(I0
tp2503
g53
tp2504
Rp2505
(I1
(I2
tp2506
g16
I00
S'n\xdb\xf7\xa8\xbfN!\xc0\xfee\xf7\xe4a\x9bD@'
p2507
tp2508
bsbsg31
g50
(g51
(I0
tp2509
g53
tp2510
Rp2511
(I1
(I2
tp2512
g16
I00
S'\x9e\x99`8\xd7P!\xc0\xc99\xb1\x87\xf6\x9bD@'
p2513
tp2514
bsbsg31
g50
(g51
(I0
tp2515
g53
tp2516
Rp2517
(I1
(I2
tp2518
g16
I00
S"\x9c\x17'\xbe\xdaQ!\xc0\xbc\x05\x12\x14?\x9cD@"
p2519
tp2520
bsbsg31
g50
(g51
(I0
tp2521
g53
tp2522
Rp2523
(I1
(I2
tp2524
g16
I00
S'Q\xd9\xb0\xa6\xb2P!\xc0\xf4N\x05\xdc\xf3\x9cD@'
p2525
tp2526
bsbsg10
(lp2527
g12
(g16
S'a\xe4Rt\xbe7!\xc0'
p2528
tp2529
Rp2530
ag12
(g16
S'\xafR\xa7G~\x97D@'
p2531
tp2532
Rp2533
asg25
Nsg27
F1.0744658117560166
sg28
Nsg30
(inode
Node
p2534
(dp2535
g5
(inode
Node
p2536
(dp2537
g5
(inode
Node
p2538
(dp2539
g5
Nsg10
(lp2540
g12
(g16
S'y[\xe9\xb5\xd9<!\xc0'
p2541
tp2542
Rp2543
ag12
(g16
S'\x13\xf4\x17zD\x95D@'
p2544
tp2545
Rp2546
asg25
(lp2547
I10
aI10
aI10
aI10
aI10
aI10
aI10
aI10
aI10
aI10
aI10
aI10
asg27
Nsg28
(lp2548
I6
aI379
aI512
aI685
aI720
aI1176
aI1381
aI1463
aI1849
aI1959
aI2236
aI2453
asg30
Nsg31
Nsbsg10
(lp2549
g12
(g16
S'`$\xcfN\x859!\xc0'
p2550
tp2551
Rp2552
ag12
(g16
S'\xcf\xbb\xef>\x1d\x98D@'
p2553
tp2554
Rp2555
asg25
Nsg27
F1.72860384732517
sg28
Nsg30
(inode
Node
p2556
(dp2557
g5
(inode
Node
p2558
(dp2559
g5
(inode
Node
p2560
(dp2561
g5
Nsg10
(lp2562
g12
(g16
S'\xf9.\xa5.\x19W!\xc0'
p2563
tp2564
Rp2565
ag12
(g16
S'\xc5\x1do\xf2[\x9eD@'
p2566
tp2567
Rp2568
asg25
(lp2569
I11
asg27
Nsg28
(lp2570
I1049
asg30
Nsg31
Nsbsg10
(lp2571
g12
(g16
S'p\xd489&:!\xc0'
p2572
tp2573
Rp2574
ag12
(g16
S'\xf1"\xcb\x88%\x97D@'
p2575
tp2576
Rp2577
asg25
Nsg27
F0.8588757390678019
sg28
Nsg30
(inode
Node
p2578
(dp2579
g5
(inode
Node
p2580
(dp2581
g5
Nsg10
(lp2582
g12
(g16
S'.n\xa3\x01\xbcU!\xc0'
p2583
tp2584
Rp2585
ag12
(g16
S'\x9c\x88~m\xfd\x9dD@'
p2586
tp2587
Rp2588
asg25
(lp2589
I12
aI12
asg27
Nsg28
(lp2590
I337
aI968
asg30
Nsg31
Nsbsg10
(lp2591
g12
(g16
S'\x1dz4\xbb\x15;!\xc0'
p2592
tp2593
Rp2594
ag12
(g16
S'\x07\x86o "\x98D@'
p2595
tp2596
Rp2597
asg25
Nsg27
F0.6411023955209735
sg28
Nsg30
(inode
Node
p2598
(dp2599
g5
(inode
Node
p2600
(dp2601
g5
Nsg10
(lp2602
g12
(g16
S'\xf2\xe9\xb1-\x03>!\xc0'
p2603
tp2604
Rp2605
ag12
(g16
S'\x12\xa1\x11l\\\x93D@'
p2606
tp2607
Rp2608
asg25
(lp2609
I13
asg27
Nsg28
(lp2610
I2097
asg30
Nsg31
Nsbsg10
(lp2611
g12
(g16
S'\x8f\xb9\xeeTM;!\xc0'
p2612
tp2613
Rp2614
ag12
(g16
S'\x9f\x14\x10\x8e\x15\x98D@'
p2615
tp2616
Rp2617
asg25
Nsg27
F0.9106242059422983
sg28
Nsg30
(inode
Node
p2618
(dp2619
g5
(inode
Node
p2620
(dp2621
g5
Nsg10
(lp2622
g12
(g16
S'\x9b\x02\x99\x9dEo!\xc0'
p2623
tp2624
Rp2625
ag12
(g16
S'@l\xe9\xd1T\xa1D@'
p2626
tp2627
Rp2628
asg25
(lp2629
I14
asg27
Nsg28
(lp2630
I55
asg30
Nsg31
Nsbsg10
(lp2631
g12
(g16
S'\xea!\xd8$\x9b;!\xc0'
p2632
tp2633
Rp2634
ag12
(g16
S'\xee\xa6\xdd\xfaB\x98D@'
p2635
tp2636
Rp2637
asg25
Nsg27
F1.0019562776057591
sg28
Nsg30
(inode
Node
p2638
(dp2639
g5
(inode
Node
p2640
(dp2641
g5
Nsg10
(lp2642
g12
(g16
S'\x8c1\xb0\x8e\xe3/!\xc0'
p2643
tp2644
Rp2645
ag12
(g16
S'>[\x07\x07{\x97D@'
p2646
tp2647
Rp2648
asg25
(lp2649
I15
asg27
Nsg28
(lp2650
I2817
asg30
Nsg31
Nsbsg10
(lp2651
g12
(g16
S'\x84\x93\xce!\n;!\xc0'
p2652
tp2653
Rp2654
ag12
(g16
S'-=C\xe1\x1c\x98D@'
p2655
tp2656
Rp2657
asg25
Nsg27
F1.115891177676419
sg28
Nsg30
(inode
Node
p2658
(dp2659
g5
(inode
Node
p2660
(dp2661
g5
Nsg10
(lp2662
g12
(g16
S'1\xce\xdf\x84BT!\xc0'
p2663
tp2664
Rp2665
ag12
(g16
S'.v\xfb\xac2\x9dD@'
p2666
tp2667
Rp2668
asg25
(lp2669
I16
asg27
Nsg28
(lp2670
I598
asg30
Nsg31
Nsbsg10
(lp2671
g12
(g16
S'"\xe6\xb6\xa1\x86;!\xc0'
p2672
tp2673
Rp2674
ag12
(g16
S'\xe5\xd6m\x199\x98D@'
p2675
tp2676
Rp2677
asg25
Nsg27
F1.037116325613137
sg28
Nsg30
(inode
Node
p2678
(dp2679
g5
(inode
Node
p2680
(dp2681
g5
Nsg10
(lp2682
g12
(g16
S'}\xc7\xf0\xd8\xcfJ!\xc0'
p2683
tp2684
Rp2685
ag12
(g16
S'U\xdbM\xf0M\x9bD@'
p2686
tp2687
Rp2688
asg25
(lp2689
I17
aI17
aI17
asg27
Nsg28
(lp2690
I370
aI715
aI2586
asg30
Nsg31
Nsbsg10
(lp2691
g12
(g16
S'\x1a\x90O]\xc9;!\xc0'
p2692
tp2693
Rp2694
ag12
(g16
S'\xd8v,N\xc0\x97D@'
p2695
tp2696
Rp2697
asg25
Nsg27
F1.4406234799811208
sg28
Nsg30
(inode
Node
p2698
(dp2699
g5
(inode
Node
p2700
(dp2701
g5
Nsg10
(lp2702
g12
(g16
S'\x9f\x90\x9d\xb7\xb1A!\xc0'
p2703
tp2704
Rp2705
ag12
(g16
S'I\x85\xb1\x85 \x95D@'
p2706
tp2707
Rp2708
asg25
(lp2709
I18
asg27
Nsg28
(lp2710
I2756
asg30
Nsg31
Nsbsg10
(lp2711
g12
(g16
S'v\xa6T\x86{;!\xc0'
p2712
tp2713
Rp2714
ag12
(g16
S"'\x0fR\x9d\xbd\x97D@"
p2715
tp2716
Rp2717
asg25
Nsg27
F1.2856096369378263
sg28
Nsg30
(inode
Node
p2718
(dp2719
g5
(inode
Node
p2720
(dp2721
g5
Nsg10
(lp2722
g12
(g16
S'\x1f\xd3\xda4\xb6O!\xc0'
p2723
tp2724
Rp2725
ag12
(g16
S'9\xf3\xab9@\x98D@'
p2726
tp2727
Rp2728
asg25
(lp2729
I19
aI19
aI19
asg27
Nsg28
(lp2730
I67
aI651
aI2957
asg30
Nsg31
Nsbsg10
(lp2731
g12
(g16
S'\xc5\x03\xd8`\xa9<!\xc0'
p2732
tp2733
Rp2734
ag12
(g16
S'\x0c\x15z\x89\x8e\x97D@'
p2735
tp2736
Rp2737
asg25
Nsg27
F1.1814135886314576
sg28
Nsg30
(inode
Node
p2738
(dp2739
g5
(inode
Node
p2740
(dp2741
g5
Nsg10
(lp2742
g12
(g16
S'\xb0WXp?P!\xc0'
p2743
tp2744
Rp2745
ag12
(g16
S'\xe1\xec\xd62\x19\x98D@'
p2746
tp2747
Rp2748
asg25
(lp2749
I20
aI20
aI20
asg27
Nsg28
(lp2750
I643
aI2326
aI2836
asg30
Nsg31
Nsbsg10
(lp2751
g12
(g16
S'\x8e`u-b<!\xc0'
p2752
tp2753
Rp2754
ag12
(g16
S'\xcbf\xc7\x86\x8e\x97D@'
p2755
tp2756
Rp2757
asg25
Nsg27
F1.030934308735777
sg28
Nsg30
(inode
Node
p2758
(dp2759
g5
(inode
Node
p2760
(dp2761
g5
Nsg10
(lp2762
g12
(g16
S'\xea\xe6\xe2o{B!\xc0'
p2763
tp2764
Rp2765
ag12
(g16
S'\x1e\xc2\xf8i\xdc\x93D@'
p2766
tp2767
Rp2768
asg25
(lp2769
I21
aI21
asg27
Nsg28
(lp2770
I2046
aI2303
asg30
Nsg31
Nsbsg10
(lp2771
g12
(g16
S"\xebu'\x0fY<!\xc0"
p2772
tp2773
Rp2774
ag12
(g16
S'\xfc\xf0\xb1A\x85\x97D@'
p2775
tp2776
Rp2777
asg25
Nsg27
F1.113568345755422
sg28
Nsg30
(inode
Node
p2778
(dp2779
g5
(inode
Node
p2780
(dp2781
g5
Nsg10
(lp2782
g12
(g16
S'\xac\xa8\xc14\x0cW!\xc0'
p2783
tp2784
Rp2785
ag12
(g16
S'\x1fL\x8a\x8fO\x9eD@'
p2786
tp2787
Rp2788
asg25
(lp2789
I22
asg27
Nsg28
(lp2790
I2987
asg30
Nsg31
Nsbsg10
(lp2791
g12
(g16
S'Y\x15\xef\xbaj<!\xc0'
p2792
tp2793
Rp2794
ag12
(g16
S'\xcd\xc7\xed\xf1\x80\x97D@'
p2795
tp2796
Rp2797
asg25
Nsg27
F1.052928760894781
sg28
Nsg30
(inode
Node
p2798
(dp2799
g5
(inode
Node
p2800
(dp2801
g5
Nsg10
(lp2802
g12
(g16
S'w\xa4\xfa\xce/J!\xc0'
p2803
tp2804
Rp2805
ag12
(g16
S'\x7fM\xd6\xa8\x87\x9aD@'
p2806
tp2807
Rp2808
asg25
(lp2809
I23
aI23
aI23
asg27
Nsg28
(lp2810
I1498
aI1926
aI2297
asg30
Nsg31
Nsbsg10
(lp2811
g12
(g16
S'\xdc\xd4(\xd1\x08<!\xc0'
p2812
tp2813
Rp2814
ag12
(g16
S'\xfb\xd2\x88\x0fZ\x97D@'
p2815
tp2816
Rp2817
asg25
Nsg27
F1.1651036673707027
sg28
Nsg30
(inode
Node
p2818
(dp2819
g5
(inode
Node
p2820
(dp2821
g5
Nsg10
(lp2822
g12
(g16
S'-`\x02\xb7\xeeV!\xc0'
p2823
tp2824
Rp2825
ag12
(g16
S'\xcb\x82\x89?\x8a\x9eD@'
p2826
tp2827
Rp2828
asg25
(lp2829
I24
asg27
Nsg28
(lp2830
I1002
asg30
Nsg31
Nsbsg10
(lp2831
g12
(g16
S'\xc7|\x9f\x8e\xac;!\xc0'
p2832
tp2833
Rp2834
ag12
(g16
S'\x11.l,E\x97D@'
p2835
tp2836
Rp2837
asg25
Nsg27
F1.0577078850067339
sg28
Nsg30
(inode
Node
p2838
(dp2839
g5
(inode
Node
p2840
(dp2841
g5
Nsg10
(lp2842
g12
(g16
S'-\xb2\x9d\xef\xa7V!\xc0'
p2843
tp2844
Rp2845
ag12
(g16
S'\xf2\xb4\xfc\xc0U\x9eD@'
p2846
tp2847
Rp2848
asg25
(lp2849
I25
asg27
Nsg28
(lp2850
I2416
asg30
Nsg31
Nsbsg10
(lp2851
g12
(g16
S'6\xd0\xe5A\x9d;!\xc0'
p2852
tp2853
Rp2854
ag12
(g16
S',\x02n\xc5D\x97D@'
p2855
tp2856
Rp2857
asg25
Nsg27
F1.0001699720939923
sg28
Nsg30
(inode
Node
p2858
(dp2859
g5
(inode
Node
p2860
(dp2861
g5
Nsg10
(lp2862
g12
(g16
S'2v\xc2Kp>!\xc0'
p2863
tp2864
Rp2865
ag12
(g16
S'6z5@i\x93D@'
p2866
tp2867
Rp2868
asg25
(lp2869
I26
aI26
asg27
Nsg28
(lp2870
I1215
aI2108
asg30
Nsg31
Nsbsg10
(lp2871
g12
(g16
S'\x19\x8d\xe2\xb8V<!\xc0'
p2872
tp2873
Rp2874
ag12
(g16
S'\x8f\xd4\x11X7\x98D@'
p2875
tp2876
Rp2877
asg25
Nsg27
F1.061840705198574
sg28
Nsg30
(inode
Node
p2878
(dp2879
g5
(inode
Node
p2880
(dp2881
g5
Nsg10
(lp2882
g12
(g16
S'_\\\xaa\xd2\x16W!\xc0'
p2883
tp2884
Rp2885
ag12
(g16
S'x\x97\x8b\xf8N\x9eD@'
p2886
tp2887
Rp2888
asg25
(lp2889
I27
asg27
Nsg28
(lp2890
I1347
asg30
Nsg31
Nsbsg10
(lp2891
g12
(g16
S'\x99D\xc9\xcc\xfc<!\xc0'
p2892
tp2893
Rp2894
ag12
(g16
S'\x18\x13}A\x05\x98D@'
p2895
tp2896
Rp2897
asg25
Nsg27
F1.1769728747394892
sg28
Nsg30
(inode
Node
p2898
(dp2899
g5
(inode
Node
p2900
(dp2901
g5
Nsg10
(lp2902
g12
(g16
S'\xe1"\xf7tuG!\xc0'
p2903
tp2904
Rp2905
ag12
(g16
S'\xa9\x9f7\x15\xa9\x8eD@'
p2906
tp2907
Rp2908
asg25
(lp2909
I28
aI28
aI28
asg27
Nsg28
(lp2910
I635
aI1669
aI2043
asg30
Nsg31
Nsbsg10
(lp2911
g12
(g16
S'p\xd5S\xf1\xab<!\xc0'
p2912
tp2913
Rp2914
ag12
(g16
S'\x81\x15\x9cM\xd8\x97D@'
p2915
tp2916
Rp2917
asg25
Nsg27
F1.0290203877966073
sg28
Nsg30
(inode
Node
p2918
(dp2919
g5
(inode
Node
p2920
(dp2921
g5
Nsg10
(lp2922
g12
(g16
S')\xfe9\x16%B!\xc0'
p2923
tp2924
Rp2925
ag12
(g16
S'm\x0e!\xf8)\x98D@'
p2926
tp2927
Rp2928
asg25
(lp2929
I29
aI29
aI29
aI29
aI29
asg27
Nsg28
(lp2930
I465
aI708
aI1264
aI1934
aI2355
asg30
Nsg31
Nsbsg10
(lp2931
g12
(g16
S'\xbb8\x86=u<!\xc0'
p2932
tp2933
Rp2934
ag12
(g16
S'\xd7\xc8t\x06\x19\x98D@'
p2935
tp2936
Rp2937
asg25
Nsg27
F1.1232775590550002
sg28
Nsg30
(inode
Node
p2938
(dp2939
g5
(inode
Node
p2940
(dp2941
g5
Nsg10
(lp2942
g12
(g16
S'&\xac\x8d\xb1\x13>!\xc0'
p2943
tp2944
Rp2945
ag12
(g16
S'\xe3Tka\x16\x9cD@'
p2946
tp2947
Rp2948
asg25
(lp2949
I30
aI30
aI30
asg27
Nsg28
(lp2950
I1097
aI1336
aI2833
asg30
Nsg31
Nsbsg10
(lp2951
g12
(g16
S']nW\x91\xb7;!\xc0'
p2952
tp2953
Rp2954
ag12
(g16
S'j\x9a6a\xbe\x97D@'
p2955
tp2956
Rp2957
asg25
Nsg27
F1.613387176079753
sg28
Nsg30
(inode
Node
p2958
(dp2959
g5
(inode
Node
p2960
(dp2961
g5
Nsg10
(lp2962
g12
(g16
S'\xccD{\x9d\x1fJ!\xc0'
p2963
tp2964
Rp2965
ag12
(g16
S'\xb4\xe8\x9d\n\xb8\x99D@'
p2966
tp2967
Rp2968
asg25
(lp2969
I31
aI31
aI31
aI31
aI31
aI31
aI31
aI31
aI31
aI31
aI31
asg27
Nsg28
(lp2970
I132
aI135
aI388
aI618
aI673
aI833
aI962
aI1185
aI1479
aI1817
aI2183
asg30
Nsg31
Nsbsg10
(lp2971
g12
(g16
S'J\x91\x1b\xe4\x94;!\xc0'
p2972
tp2973
Rp2974
ag12
(g16
S'a\x90\xfe\xa1\xa3\x97D@'
p2975
tp2976
Rp2977
asg25
Nsg27
F1.366797631272236
sg28
Nsg30
(inode
Node
p2978
(dp2979
g5
(inode
Node
p2980
(dp2981
g5
Nsg10
(lp2982
g12
(g16
S'XP\x18\x94i(!\xc0'
p2983
tp2984
Rp2985
ag12
(g16
S'\xda\xc7\n~\x9b\x91D@'
p2986
tp2987
Rp2988
asg25
(lp2989
I32
aI32
aI32
aI32
asg27
Nsg28
(lp2990
I622
aI1287
aI1662
aI2716
asg30
Nsg31
Nsbsg10
(lp2991
g12
(g16
S'&D\xcbi\x95;!\xc0'
p2992
tp2993
Rp2994
ag12
(g16
S'\x04\xebQ\x81\xb1\x97D@'
p2995
tp2996
Rp2997
asg25
Nsg27
F1.0161840589322944
sg28
Nsg30
(inode
Node
p2998
(dp2999
g5
(inode
Node
p3000
(dp3001
g5
Nsg10
(lp3002
g12
(g16
S'\x0e\x88k\x10AH!\xc0'
p3003
tp3004
Rp3005
ag12
(g16
S'\x9b\xdd\xfflP\x98D@'
p3006
tp3007
Rp3008
asg25
(lp3009
I33
aI33
aI33
aI33
aI33
asg27
Nsg28
(lp3010
I682
aI1241
aI1694
aI1915
aI2512
asg30
Nsg31
Nsbsg10
(lp3011
g12
(g16
S'\xab\xdcsbu?!\xc0'
p3012
tp3013
Rp3014
ag12
(g16
S'\xb8\xdb\xc5\xff\xe9\x97D@'
p3015
tp3016
Rp3017
asg25
Nsg27
F1.0984586557026041
sg28
Nsg30
(inode
Node
p3018
(dp3019
g5
(inode
Node
p3020
(dp3021
g5
Nsg10
(lp3022
g12
(g16
S'\x9d\xe4\xc9rSE!\xc0'
p3023
tp3024
Rp3025
ag12
(g16
S'\xff-\xc4\xa9T\x96D@'
p3026
tp3027
Rp3028
asg25
(lp3029
I34
aI34
aI34
aI34
aI34
aI34
aI34
asg27
Nsg28
(lp3030
I1630
aI1826
aI1912
aI2076
aI2482
aI2488
aI2588
asg30
Nsg31
Nsbsg10
(lp3031
g12
(g16
S'W\x04\xf6\xf5A=!\xc0'
p3032
tp3033
Rp3034
ag12
(g16
S'\xe8!np\x9a\x97D@'
p3035
tp3036
Rp3037
asg25
Nsg27
F1.2135521436711132
sg28
Nsg30
(inode
Node
p3038
(dp3039
g5
(inode
Node
p3040
(dp3041
g5
Nsg10
(lp3042
g12
(g16
S'\x07{\x13Cr2!\xc0'
p3043
tp3044
Rp3045
ag12
(g16
S'\x05\x86\xacn\xf5\x96D@'
p3046
tp3047
Rp3048
asg25
(lp3049
I35
asg27
Nsg28
(lp3050
I928
asg30
Nsg31
Nsbsg10
(lp3051
g12
(g16
S'\xd2\xe0\xb6\xb6\xf0<!\xc0'
p3052
tp3053
Rp3054
ag12
(g16
S'\xbaG\x99\x81\x88\x98D@'
p3055
tp3056
Rp3057
asg25
Nsg27
F0.9803482389271336
sg28
Nsg30
(inode
Node
p3058
(dp3059
g5
(inode
Node
p3060
(dp3061
g5
Nsg10
(lp3062
g12
(g16
S'~\xc9\xc6\x83-F!\xc0'
p3063
tp3064
Rp3065
ag12
(g16
S'\x16O=\xd2\xe0\x94D@'
p3066
tp3067
Rp3068
asg25
(lp3069
I36
aI36
asg27
Nsg28
(lp3070
I1326
aI1910
asg30
Nsg31
Nsbsg10
(lp3071
g12
(g16
S'JB\x18\x00\xd2<!\xc0'
p3072
tp3073
Rp3074
ag12
(g16
S'\xb0>\x85iC\x98D@'
p3075
tp3076
Rp3077
asg25
Nsg27
F1.023225652943142
sg28
Nsg30
(inode
Node
p3078
(dp3079
g5
(inode
Node
p3080
(dp3081
g5
Nsg10
(lp3082
g12
(g16
S'\x93\x8d\x07[\xecV!\xc0'
p3083
tp3084
Rp3085
ag12
(g16
S'?\xc7G\x8b3\x9eD@'
p3086
tp3087
Rp3088
asg25
(lp3089
I37
asg27
Nsg28
(lp3090
I390
asg30
Nsg31
Nsbsg10
(lp3091
g12
(g16
S'\xde$\x06\x81\x95<!\xc0'
p3092
tp3093
Rp3094
ag12
(g16
S'\xf8\xfd\x9b\x17g\x98D@'
p3095
tp3096
Rp3097
asg25
Nsg27
F1.05832826999266
sg28
Nsg30
(inode
Node
p3098
(dp3099
g5
(inode
Node
p3100
(dp3101
g5
Nsg10
(lp3102
g12
(g16
S'\x12\xbc!\x8d\n,!\xc0'
p3103
tp3104
Rp3105
ag12
(g16
S'l!\xc8A\t\x93D@'
p3106
tp3107
Rp3108
asg25
(lp3109
I38
asg27
Nsg28
(lp3110
I3028
asg30
Nsg31
Nsbsg10
(lp3111
g12
(g16
S'qSn\x11\x91<!\xc0'
p3112
tp3113
Rp3114
ag12
(g16
S"\x80\xb7>'T\x98D@"
p3115
tp3116
Rp3117
asg25
Nsg27
F1.0555122115390467
sg28
Nsg30
(inode
Node
p3118
(dp3119
g5
(inode
Node
p3120
(dp3121
g5
Nsg10
(lp3122
g12
(g16
S'\x13\xb6\x9f\x8c\xf19!\xc0'
p3123
tp3124
Rp3125
ag12
(g16
S'\xbb\x0c\xff\xe9\x06\x92D@'
p3126
tp3127
Rp3128
asg25
(lp3129
I39
asg27
Nsg28
(lp3130
I1787
asg30
Nsg31
Nsbsg10
(lp3131
g12
(g16
S'\x06\x07 Z\xd0<!\xc0'
p3132
tp3133
Rp3134
ag12
(g16
S'\xa3\xff&\x96\x98\x98D@'
p3135
tp3136
Rp3137
asg25
Nsg27
F1.0381420721994252
sg28
Nsg30
(inode
Node
p3138
(dp3139
g5
(inode
Node
p3140
(dp3141
g5
Nsg10
(lp3142
g12
(g16
S'\x10\x07\tQ\xbeX!\xc0'
p3143
tp3144
Rp3145
ag12
(g16
S'PT6\xac\xa9\x94D@'
p3146
tp3147
Rp3148
asg25
(lp3149
I40
asg27
Nsg28
(lp3150
I1228
asg30
Nsg31
Nsbsg10
(lp3151
g12
(g16
S'\x0f\x8aY\x00\xdb<!\xc0'
p3152
tp3153
Rp3154
ag12
(g16
S'h\xa6f\xf5\xb0\x98D@'
p3155
tp3156
Rp3157
asg25
Nsg27
F1.0142585685839778
sg28
Nsg30
(inode
Node
p3158
(dp3159
g5
(inode
Node
p3160
(dp3161
g5
Nsg10
(lp3162
g12
(g16
S'\xcd\x1f\xd3\xda46!\xc0'
p3163
tp3164
Rp3165
ag12
(g16
S']\x18\xe9E\xed\x99D@'
p3166
tp3167
Rp3168
asg25
(lp3169
I41
aI41
asg27
Nsg28
(lp3170
I463
aI3019
asg30
Nsg31
Nsbsg10
(lp3171
g12
(g16
S'\xcd\x1f*\xe4\xa1<!\xc0'
p3172
tp3173
Rp3174
ag12
(g16
S' Fd\xb4\xea\x98D@'
p3175
tp3176
Rp3177
asg25
Nsg27
F1.0013721701954506
sg28
Nsg30
(inode
Node
p3178
(dp3179
g5
(inode
Node
p3180
(dp3181
g5
Nsg10
(lp3182
g12
(g16
S'\xa8\xde\x1a\xd8*\x08!\xc0'
p3183
tp3184
Rp3185
ag12
(g16
S'\x1a\xa3uT\xb5\x98D@'
p3186
tp3187
Rp3188
asg25
(lp3189
I42
aI42
aI42
aI42
aI42
aI42
aI42
aI42
asg27
Nsg28
(lp3190
I1222
aI1344
aI1543
aI1556
aI1970
aI2511
aI2543
aI3012
asg30
Nsg31
Nsbsg10
(lp3191
g12
(g16
S'V\x98\t\xb2\xdc<!\xc0'
p3192
tp3193
Rp3194
ag12
(g16
S'\x9f\xb4\xae;\xbe\x98D@'
p3195
tp3196
Rp3197
asg25
Nsg27
F1.021003062338767
sg28
Nsg30
(inode
Node
p3198
(dp3199
g5
(inode
Node
p3200
(dp3201
g5
Nsg10
(lp3202
g12
(g16
S'\x8f\xc4\xcb\xd3\xb9b!\xc0'
p3203
tp3204
Rp3205
ag12
(g16
S'\xdd\x02\t\x8a\x1f\x9bD@'
p3206
tp3207
Rp3208
asg25
(lp3209
I43
aI43
aI43
asg27
Nsg28
(lp3210
I1476
aI1501
aI2476
asg30
Nsg31
Nsbsg10
(lp3211
g12
(g16
S'\x11GU\xad\xe9C!\xc0'
p3212
tp3213
Rp3214
ag12
(g16
S'\x8f5!G\xd7\x98D@'
p3215
tp3216
Rp3217
asg25
Nsg27
F1.131652760793746
sg28
Nsg30
(inode
Node
p3218
(dp3219
g5
(inode
Node
p3220
(dp3221
g5
Nsg10
(lp3222
g12
(g16
S's\x9f\x1c\x05\x886!\xc0'
p3223
tp3224
Rp3225
ag12
(g16
S'\x92BY\xf8\xfa\x91D@'
p3226
tp3227
Rp3228
asg25
(lp3229
I44
aI44
asg27
Nsg28
(lp3230
I236
aI1356
asg30
Nsg31
Nsbsg10
(lp3231
g12
(g16
S'\x92\xfa\x1afYB!\xc0'
p3232
tp3233
Rp3234
ag12
(g16
S'\xce\x82\x12\xfc\x8e\x98D@'
p3235
tp3236
Rp3237
asg25
Nsg27
F1.0077201922281926
sg28
Nsg30
(inode
Node
p3238
(dp3239
g5
(inode
Node
p3240
(dp3241
g5
Nsg10
(lp3242
g12
(g16
S'\xde\xc8<\xf2\x07;!\xc0'
p3243
tp3244
Rp3245
ag12
(g16
S'\xad\xa3\xaa\t\xa2\x92D@'
p3246
tp3247
Rp3248
asg25
(lp3249
I45
asg27
Nsg28
(lp3250
I1507
asg30
Nsg31
Nsbsg10
(lp3251
g12
(g16
S'\xc7;\xc8\x10\xb0D!\xc0'
p3252
tp3253
Rp3254
ag12
(g16
S'\xcaL\x8dj\x03\x99D@'
p3255
tp3256
Rp3257
asg25
Nsg27
F1.1112330762630473
sg28
Nsg30
(inode
Node
p3258
(dp3259
g5
(inode
Node
p3260
(dp3261
g5
Nsg10
(lp3262
g12
(g16
S'\xe0\xa2\x93\xa5\xd6+!\xc0'
p3263
tp3264
Rp3265
ag12
(g16
S'Ll>\xae\r\x93D@'
p3266
tp3267
Rp3268
asg25
(lp3269
I46
asg27
Nsg28
(lp3270
I424
asg30
Nsg31
Nsbsg10
(lp3271
g12
(g16
S'\xc1\xdb\xf7\xcb\x90D!\xc0'
p3272
tp3273
Rp3274
ag12
(g16
S'9\xab3\x0f\x1a\x99D@'
p3275
tp3276
Rp3277
asg25
Nsg27
F1.4300940182959132
sg28
Nsg30
(inode
Node
p3278
(dp3279
g5
Nsg10
(lp3280
g12
(g16
S'\xb6d\xf2Y\xe0C!\xc0'
p3281
tp3282
Rp3283
ag12
(g16
S'\x96\xb93\xf2\xfd\x98D@'
p3284
tp3285
Rp3286
asg25
(lp3287
I47
aI47
aI47
aI47
aI47
aI47
aI47
aI47
aI47
aI47
aI47
aI47
aI47
aI47
aI47
aI47
aI47
aI47
aI47
aI47
aI47
aI47
aI47
aI47
aI47
aI47
aI47
aI47
aI47
aI47
aI47
aI47
aI47
aI47
aI47
aI47
aI47
aI47
aI47
aI47
aI47
aI47
aI47
aI47
aI47
aI47
aI47
aI47
aI47
asg27
Nsg28
(lp3288
I155
aI224
aI304
aI454
aI603
aI762
aI763
aI806
aI994
aI1010
aI1086
aI1173
aI1229
aI1236
aI1260
aI1305
aI1335
aI1361
aI1362
aI1445
aI1450
aI1573
aI1590
aI1595
aI1616
aI1622
aI1750
aI1785
aI1803
aI1819
aI1836
aI1857
aI1867
aI2022
aI2071
aI2083
aI2109
aI2221
aI2256
aI2298
aI2324
aI2338
aI2364
aI2495
aI2620
aI2633
aI2679
aI2696
aI2939
asg30
Nsg31
Nsbsg31
g50
(g51
(I0
tp3289
g53
tp3290
Rp3291
(I1
(I2
tp3292
g16
I00
S'\xa4Q\x81\x93m0!\xc0\xadjIG9\x96D@'
p3293
tp3294
bsbsg31
g50
(g51
(I0
tp3295
g53
tp3296
Rp3297
(I1
(I2
tp3298
g16
I00
S'\xbfb\r\x17\xb9/!\xc0\xf2\x95@J\xec\x96D@'
p3299
tp3300
bsbsg31
g50
(g51
(I0
tp3301
g53
tp3302
Rp3303
(I1
(I2
tp3304
g16
I00
S'?74e\xa7/!\xc0\xb8\xca\x13\x08;\x97D@'
p3305
tp3306
bsbsg31
g50
(g51
(I0
tp3307
g53
tp3308
Rp3309
(I1
(I2
tp3310
g16
I00
S'%\xb2\x0f\xb2,0!\xc0W\xb0\x8dx\xb2\x97D@'
p3311
tp3312
bsbsg31
g50
(g51
(I0
tp3313
g53
tp3314
Rp3315
(I1
(I2
tp3316
g16
I00
S'\x8c\xf7\xe3\xf6\xcb/!\xc0\x9c\xf8jGq\x98D@'
p3317
tp3318
bsbsg31
g50
(g51
(I0
tp3319
g53
tp3320
Rp3321
(I1
(I2
tp3322
g16
I00
S'\x8d\xd0\xcf\xd4\xeb.!\xc0"\xc3*\xde\xc8\x98D@'
p3323
tp3324
bsbsg31
g50
(g51
(I0
tp3325
g53
tp3326
Rp3327
(I1
(I2
tp3328
g16
I00
S'\xaa\xbaG6W-!\xc0\x1b\xf4\xa5\xb7?\x99D@'
p3329
tp3330
bsbsg31
g50
(g51
(I0
tp3331
g53
tp3332
Rp3333
(I1
(I2
tp3334
g16
I00
S'\x93\xc5\xfdG\xa6+!\xc0\xc0\xe7\x87\x11\xc2\x99D@'
p3335
tp3336
bsbsg31
g50
(g51
(I0
tp3337
g53
tp3338
Rp3339
(I1
(I2
tp3340
g16
I00
S'\xfb:p\xce\x88*!\xc0\xd9$?\xe2W\x9aD@'
p3341
tp3342
bsbsg31
g50
(g51
(I0
tp3343
g53
tp3344
Rp3345
(I1
(I2
tp3346
g16
I00
S'K\xca\xdd\xe7\xf8(!\xc0\x1e\x16jM\xf3\x9aD@'
p3347
tp3348
bsbsg31
g50
(g51
(I0
tp3349
g53
tp3350
Rp3351
(I1
(I2
tp3352
g16
I00
S"\xb5\xc6\xa0\x13B'!\xc0\xaa(^em\x9bD@"
p3353
tp3354
bsbsg31
g50
(g51
(I0
tp3355
g53
tp3356
Rp3357
(I1
(I2
tp3358
g16
I00
S'O\xacS\xe5{&!\xc0\xe9E\xed~\x15\x9cD@'
p3359
tp3360
bsbsg31
g50
(g51
(I0
tp3361
g53
tp3362
Rp3363
(I1
(I2
tp3364
g16
I00
S'8\x9f:V)%!\xc0\x01\xbdp\xe7\xc2\x9cD@'
p3365
tp3366
bsbsg31
g50
(g51
(I0
tp3367
g53
tp3368
Rp3369
(I1
(I2
tp3370
g16
I00
S'9\x9a#+\xbf$!\xc04\x10\xcbf\x0e\x9dD@'
p3371
tp3372
bsbsg31
g50
(g51
(I0
tp3373
g53
tp3374
Rp3375
(I1
(I2
tp3376
g16
I00
S'n5\xeb\x8c\xef#!\xc0\xda\x8f\x14\x91a\x9dD@'
p3377
tp3378
bsbsg31
g50
(g51
(I0
tp3379
g53
tp3380
Rp3381
(I1
(I2
tp3382
g16
I00
S'\t\x1b\x9e^)#!\xc0Z\x12\xa0\xa6\x96\x9dD@'
p3383
tp3384
bsbsg31
g50
(g51
(I0
tp3385
g53
tp3386
Rp3387
(I1
(I2
tp3388
g16
I00
S'?\x8fQ\x9ey!!\xc0\x8c0E\xb94\x9eD@'
p3389
tp3390
bsbsg31
g50
(g51
(I0
tp3391
g53
tp3392
Rp3393
(I1
(I2
tp3394
g16
I00
S'B\xb0\xaa^~\x1f!\xc0\xf1\xb9\x13\xec\xbf\x9eD@'
p3395
tp3396
bsbsg31
g50
(g51
(I0
tp3397
g53
tp3398
Rp3399
(I1
(I2
tp3400
g16
I00
S'y<-?p\x1d!\xc0W\x04\xff[\xc9\x9eD@'
p3401
tp3402
bsbsg31
g50
(g51
(I0
tp3403
g53
tp3404
Rp3405
(I1
(I2
tp3406
g16
I00
S'\xc0\x07\xaf]\xda !\xc0\xb7]h\xae\xd3\x9eD@'
p3407
tp3408
bsbsg31
g50
(g51
(I0
tp3409
g53
tp3410
Rp3411
(I1
(I2
tp3412
g16
I00
S'<\x17FzQ#!\xc0\xd8\xf5\x0bv\xc3\x9eD@'
p3413
tp3414
bsbsg31
g50
(g51
(I0
tp3415
g53
tp3416
Rp3417
(I1
(I2
tp3418
g16
I00
S'\x84\x81\xe7\xde\xc3%!\xc0\xab\x07\xccC\xa6\x9eD@'
p3419
tp3420
bsbsg31
g50
(g51
(I0
tp3421
g53
tp3422
Rp3423
(I1
(I2
tp3424
g16
I00
S'L\xc5\xc6\xbc\x8e(!\xc0\x85D\xda\xc6\x9f\x9eD@'
p3425
tp3426
bsbsg31
g50
(g51
(I0
tp3427
g53
tp3428
Rp3429
(I1
(I2
tp3430
g16
I00
S'-\x93\xe1x>+!\xc0\xe5)\xab\xe9z\x9eD@'
p3431
tp3432
bsbsg31
g50
(g51
(I0
tp3433
g53
tp3434
Rp3435
(I1
(I2
tp3436
g16
I00
S'\xc0\x92\xabX\xfc.!\xc0\xeb\xfdF;n\x9eD@'
p3437
tp3438
bsbsg31
g50
(g51
(I0
tp3439
g53
tp3440
Rp3441
(I1
(I2
tp3442
g16
I00
S'\xa2&\xfa|\x941!\xc0\xab\xb0\x19\xe0\x82\x9eD@'
p3443
tp3444
bsbsg31
g50
(g51
(I0
tp3445
g53
tp3446
Rp3447
(I1
(I2
tp3448
g16
I00
S'\x02G\x02\r65!\xc0\xeb\xc8\x91\xce\xc0\x9eD@'
p3449
tp3450
bsbsg31
g50
(g51
(I0
tp3451
g53
tp3452
Rp3453
(I1
(I2
tp3454
g16
I00
S'\x96\x07\xe9)r8!\xc0\xd8\xbb?\xde\xab\x9eD@'
p3455
tp3456
bsbsg31
g50
(g51
(I0
tp3457
g53
tp3458
Rp3459
(I1
(I2
tp3460
g16
I00
S'B\x96\x05\x13\x7f<!\xc0\xbe\xf77h\xaf\x9eD@'
p3461
tp3462
bsbsg31
g50
(g51
(I0
tp3463
g53
tp3464
Rp3465
(I1
(I2
tp3466
g16
I00
S'\xa2\xb6\r\xa3 @!\xc0~\x01\xbdp\xe7\x9eD@'
p3467
tp3468
bsbsg31
g50
(g51
(I0
tp3469
g53
tp3470
Rp3471
(I1
(I2
tp3472
g16
I00
S"N\xb4\xab\x90\xf2C!\xc0\xfe\x9b\x17'\xbe\x9eD@"
p3473
tp3474
bsbsg31
g50
(g51
(I0
tp3475
g53
tp3476
Rp3477
(I1
(I2
tp3478
g16
I00
S'\xc8{\xd5\xca\x84G!\xc0\x91C\xc4\xcd\xa9\x9eD@'
p3479
tp3480
bsbsg31
g50
(g51
(I0
tp3481
g53
tp3482
Rp3483
(I1
(I2
tp3484
g16
I00
S']\x1a\xbf\xf0JJ!\xc0\xbeN\xea\xcb\xd2\x9eD@'
p3485
tp3486
bsbsg31
g50
(g51
(I0
tp3487
g53
tp3488
Rp3489
(I1
(I2
tp3490
g16
I00
S'\xa6\xd6\xfb\x8dvL!\xc0x\x9c\xa2#\xb9\x9eD@'
p3491
tp3492
bsbsg31
g50
(g51
(I0
tp3493
g53
tp3494
Rp3495
(I1
(I2
tp3496
g16
I00
S'\xf2D\x10\xe7\xe1L!\xc0Q\xbc\xca\xda\xa6\x9eD@'
p3497
tp3498
bsbsg31
g50
(g51
(I0
tp3499
g53
tp3500
Rp3501
(I1
(I2
tp3502
g16
I00
S'\xbcW\xadL\xf8M!\xc0x\xee=\\r\x9eD@'
p3503
tp3504
bsbsg10
(lp3505
g12
(g16
S'"w\x1c\x14\xf55!\xc0'
p3506
tp3507
Rp3508
ag12
(g16
S'\xc1r\xfb\x14\xa0\x98D@'
p3509
tp3510
Rp3511
asg25
Nsg27
F1.067017922296283
sg28
Nsg30
(inode
Node
p3512
(dp3513
g5
(inode
Node
p3514
(dp3515
g5
Nsg10
(lp3516
g12
(g16
S'\xdfI\x89 \x8d\x14!\xc0'
p3517
tp3518
Rp3519
ag12
(g16
S'apO\x94\xc5\x9cD@'
p3520
tp3521
Rp3522
asg25
(lp3523
I12
aI12
aI12
aI12
aI12
aI12
aI12
aI12
aI12
aI12
aI12
aI12
aI12
aI12
asg27
Nsg28
(lp3524
I557
aI619
aI934
aI1084
aI1380
aI1690
aI1789
aI1886
aI2160
aI2197
aI2490
aI2547
aI2563
aI2844
asg30
Nsg31
Nsbsg10
(lp3525
g12
(g16
S'\x81\xfe\xf4\xff\xa73!\xc0'
p3526
tp3527
Rp3528
ag12
(g16
S'`0\x91h\x88\x99D@'
p3529
tp3530
Rp3531
asg25
Nsg27
F0.7585907863106682
sg28
Nsg30
(inode
Node
p3532
(dp3533
g5
(inode
Node
p3534
(dp3535
g5
Nsg10
(lp3536
g12
(g16
S'HnM\xba-9!\xc0'
p3537
tp3538
Rp3539
ag12
(g16
S'\xc67\x14>[\x93D@'
p3540
tp3541
Rp3542
asg25
(lp3543
I13
aI13
asg27
Nsg28
(lp3544
I2042
aI2925
asg30
Nsg31
Nsbsg10
(lp3545
g12
(g16
S'\x82Mh\xbaO5!\xc0'
p3546
tp3547
Rp3548
ag12
(g16
S'\x1b\x1d\x08j\x14\x98D@'
p3549
tp3550
Rp3551
asg25
Nsg27
F1.0270841735027092
sg28
Nsg30
(inode
Node
p3552
(dp3553
g5
(inode
Node
p3554
(dp3555
g5
Nsg10
(lp3556
g12
(g16
S'\xf8\xfb\xc5l\xc9:!\xc0'
p3557
tp3558
Rp3559
ag12
(g16
S'\x92\x92\x1e\x86V\x93D@'
p3560
tp3561
Rp3562
asg25
(lp3563
I14
asg27
Nsg28
(lp3564
I967
asg30
Nsg31
Nsbsg10
(lp3565
g12
(g16
S'e\x10p\xc2\xb22!\xc0'
p3566
tp3567
Rp3568
ag12
(g16
S'()\xf6\xa2%\x98D@'
p3569
tp3570
Rp3571
asg25
Nsg27
F1.3370947620427365
sg28
Nsg30
(inode
Node
p3572
(dp3573
g5
(inode
Node
p3574
(dp3575
g5
Nsg10
(lp3576
g12
(g16
S'{\xa5m~\x003!\xc0'
p3577
tp3578
Rp3579
ag12
(g16
S'\xd2\xa8\xc0\xc96\x9eD@'
p3580
tp3581
Rp3582
asg25
(lp3583
I15
aI15
aI15
aI15
aI15
aI15
aI15
asg27
Nsg28
(lp3584
I127
aI321
aI419
aI1134
aI1746
aI1751
aI2459
asg30
Nsg31
Nsbsg10
(lp3585
g12
(g16
S'O\x06gC\x812!\xc0'
p3586
tp3587
Rp3588
ag12
(g16
S'\xc5hT\xf0!\x98D@'
p3589
tp3590
Rp3591
asg25
Nsg27
F0.9373742358544846
sg28
Nsg30
(inode
Node
p3592
(dp3593
g5
(inode
Node
p3594
(dp3595
g5
Nsg10
(lp3596
g12
(g16
S'\x1a1\xb3\xcfcD!\xc0'
p3597
tp3598
Rp3599
ag12
(g16
S'\x94\xbf{G\x8d\x99D@'
p3600
tp3601
Rp3602
asg25
(lp3603
I16
asg27
Nsg28
(lp3604
I1973
asg30
Nsg31
Nsbsg10
(lp3605
g12
(g16
S'\xfd\xbf\xea\xc8Q2!\xc0'
p3606
tp3607
Rp3608
ag12
(g16
S'\tcH\x8f\xf1\x97D@'
p3609
tp3610
Rp3611
asg25
Nsg27
F1.1542855479601917
sg28
Nsg30
(inode
Node
p3612
(dp3613
g5
(inode
Node
p3614
(dp3615
g5
Nsg10
(lp3616
g12
(g16
S'\xcd\xaf\xe6\x00\xc1D!\xc0'
p3617
tp3618
Rp3619
ag12
(g16
S'\x9b\xe3\xdc&\xdc\x91D@'
p3620
tp3621
Rp3622
asg25
(lp3623
I17
asg27
Nsg28
(lp3624
I1846
asg30
Nsg31
Nsbsg10
(lp3625
g12
(g16
S'k\x9bq\xb0,2!\xc0'
p3626
tp3627
Rp3628
ag12
(g16
S'\x1d\xf8\xe9\xfd>\x98D@'
p3629
tp3630
Rp3631
asg25
Nsg27
F1.2583969485269213
sg28
Nsg30
(inode
Node
p3632
(dp3633
g5
(inode
Node
p3634
(dp3635
g5
Nsg10
(lp3636
g12
(g16
S'"XU/\xbf5!\xc0'
p3637
tp3638
Rp3639
ag12
(g16
S'\xe9-\x1e\xdes\x93D@'
p3640
tp3641
Rp3642
asg25
(lp3643
I18
aI18
aI18
aI18
asg27
Nsg28
(lp3644
I218
aI567
aI1363
aI1444
asg30
Nsg31
Nsbsg10
(lp3645
g12
(g16
S'Y\x0f\x18\x81\xa53!\xc0'
p3646
tp3647
Rp3648
ag12
(g16
S'-\x91S\x83x\x98D@'
p3649
tp3650
Rp3651
asg25
Nsg27
F1.0465550111806556
sg28
Nsg30
(inode
Node
p3652
(dp3653
g5
(inode
Node
p3654
(dp3655
g5
Nsg10
(lp3656
g12
(g16
S'\x9a\xddI\xfaj5!\xc0'
p3657
tp3658
Rp3659
ag12
(g16
S'K\xb8\xeb\x00\xe3\x9cD@'
p3660
tp3661
Rp3662
asg25
(lp3663
I19
aI19
aI19
aI19
aI19
aI19
aI19
aI19
aI19
aI19
aI19
aI19
aI19
aI19
aI19
aI19
aI19
aI19
aI19
aI19
aI19
aI19
aI19
aI19
aI19
aI19
aI19
aI19
aI19
aI19
aI19
aI19
aI19
aI19
aI19
aI19
aI19
aI19
aI19
aI19
aI19
aI19
aI19
aI19
aI19
asg27
Nsg28
(lp3664
I17
aI29
aI33
aI128
aI481
aI768
aI851
aI876
aI886
aI908
aI978
aI988
aI1004
aI1042
aI1249
aI1325
aI1333
aI1358
aI1364
aI1383
aI1487
aI1643
aI1732
aI1801
aI1845
aI1866
aI1879
aI1914
aI1924
aI1983
aI2244
aI2259
aI2379
aI2426
aI2545
aI2556
aI2619
aI2691
aI2697
aI2717
aI2797
aI2904
aI2938
aI2950
aI2995
asg30
Nsg31
Nsbsg10
(lp3665
g12
(g16
S'\xaa\x8f\xb1\x0c\x863!\xc0'
p3666
tp3667
Rp3668
ag12
(g16
S'\xb1-\xbc~\x81\x98D@'
p3669
tp3670
Rp3671
asg25
Nsg27
F1.0110045488339359
sg28
Nsg30
(inode
Node
p3672
(dp3673
g5
(inode
Node
p3674
(dp3675
g5
(inode
Node
p3676
(dp3677
g5
Nsg10
(lp3678
g12
(g16
S'\x1d\xcaP\x15SQ!\xc0'
p3679
tp3680
Rp3681
ag12
(g16
S'\x7f\xfa\xcf\x9a\x1f\x97D@'
p3682
tp3683
Rp3684
asg25
(lp3685
I20
asg27
Nsg28
(lp3686
I2638
asg30
Nsg31
Nsbsg10
(lp3687
g12
(g16
S'\xa2\xbe\xa30\xd0@!\xc0'
p3688
tp3689
Rp3690
ag12
(g16
S'+\xf6\xf1IU\x99D@'
p3691
tp3692
Rp3693
asg25
Nsg27
F0.783870247086713
sg28
Nsg30
(inode
Node
p3694
(dp3695
g5
(inode
Node
p3696
(dp3697
g5
Nsg10
(lp3698
g12
(g16
S'\x06\x9c\xa5d9A!\xc0'
p3699
tp3700
Rp3701
ag12
(g16
S'\xd7\x18tB\xe8\x90D@'
p3702
tp3703
Rp3704
asg25
(lp3705
I21
asg27
Nsg28
(lp3706
I1348
asg30
Nsg31
Nsbsg10
(lp3707
g12
(g16
S'\x9c\xae\x14\xef\xedC!\xc0'
p3708
tp3709
Rp3710
ag12
(g16
S't\xc4G\xb1\xc9\x98D@'
p3711
tp3712
Rp3713
asg25
Nsg27
F0.8891545746504507
sg28
Nsg30
(inode
Node
p3714
(dp3715
g5
(inode
Node
p3716
(dp3717
g5
Nsg10
(lp3718
g12
(g16
S'\xe0\xa2\x93\xa5\xd6+!\xc0'
p3719
tp3720
Rp3721
ag12
(g16
S'Ll>\xae\r\x93D@'
p3722
tp3723
Rp3724
asg25
(lp3725
I22
asg27
Nsg28
(lp3726
I232
asg30
Nsg31
Nsbsg10
(lp3727
g12
(g16
S'\xf1\xae\xa5)aD!\xc0'
p3728
tp3729
Rp3730
ag12
(g16
S'h\xbf\x90%\x05\x99D@'
p3731
tp3732
Rp3733
asg25
Nsg27
F1.4551799693159737
sg28
Nsg30
(inode
Node
p3734
(dp3735
g5
(inode
Node
p3736
(dp3737
g5
Nsg10
(lp3738
g12
(g16
S'V\x0e-\xb2\x9d?!\xc0'
p3739
tp3740
Rp3741
ag12
(g16
S'\xd3\xa5\x7fI*\x93D@'
p3742
tp3743
Rp3744
asg25
(lp3745
I23
asg27
Nsg28
(lp3746
I757
asg30
Nsg31
Nsbsg10
(lp3747
g12
(g16
S'h\xe1I\x97\xdbD!\xc0'
p3748
tp3749
Rp3750
ag12
(g16
S'\xe7\x84D\xfd\x17\x99D@'
p3751
tp3752
Rp3753
asg25
Nsg27
F1.0109593683867626
sg28
Nsg30
(inode
Node
p3754
(dp3755
g5
(inode
Node
p3756
(dp3757
g5
Nsg10
(lp3758
g12
(g16
S'\x86\xc7~\x16K\xf9 \xc0'
p3759
tp3760
Rp3761
ag12
(g16
S'\x91F\x05N\xb6\x97D@'
p3762
tp3763
Rp3764
asg25
(lp3765
I24
asg27
Nsg28
(lp3766
I731
asg30
Nsg31
Nsbsg10
(lp3767
g12
(g16
S'\xd2\xe8j\x87\x1bD!\xc0'
p3768
tp3769
Rp3770
ag12
(g16
S'\xa2\x82q\x1e\xfc\x98D@'
p3771
tp3772
Rp3773
asg25
Nsg27
F0.9736319383914888
sg28
Nsg30
(inode
Node
p3774
(dp3775
g5
Nsg10
(lp3776
g12
(g16
S'\xf1\x0c}$\xe3D!\xc0'
p3777
tp3778
Rp3779
ag12
(g16
S'\x8am\xf7\x17\xe6\x98D@'
p3780
tp3781
Rp3782
asg25
(lp3783
I25
aI25
aI25
aI25
aI25
aI25
aI25
aI25
aI25
aI25
aI25
aI25
aI25
aI25
aI25
aI25
aI25
aI25
aI25
aI25
aI25
aI25
aI25
aI25
aI25
aI25
aI25
aI25
aI25
aI25
aI25
aI25
aI25
aI25
aI25
aI25
aI25
aI25
aI25
aI25
aI25
aI25
aI25
aI25
aI25
aI25
aI25
aI25
aI25
aI25
asg27
Nsg28
(lp3784
I65
aI104
aI109
aI292
aI371
aI393
aI494
aI504
aI520
aI617
aI822
aI841
aI865
aI933
aI1062
aI1108
aI1145
aI1165
aI1391
aI1548
aI1566
aI1582
aI1594
aI1633
aI1658
aI1693
aI1704
aI1711
aI1735
aI1749
aI1769
aI1778
aI1881
aI1895
aI1935
aI1999
aI2060
aI2138
aI2226
aI2254
aI2302
aI2351
aI2354
aI2401
aI2491
aI2497
aI2686
aI2693
aI2914
aI2969
asg30
Nsg31
Nsbsg31
g50
(g51
(I0
tp3785
g53
tp3786
Rp3787
(I1
(I2
tp3788
g16
I00
S'\x0b\xed\x9cf\x81>!\xc0\x198\xa0\xa5+\x9aD@'
p3789
tp3790
bsbsg31
g50
(g51
(I0
tp3791
g53
tp3792
Rp3793
(I1
(I2
tp3794
g16
I00
S'l|&\xfb\xe7A!\xc0\xc6\xa8k\xed}\x9aD@'
p3795
tp3796
bsbsg31
g50
(g51
(I0
tp3797
g53
tp3798
Rp3799
(I1
(I2
tp3800
g16
I00
S'h\xcaN?\xa8C!\xc0\xff>\xe3\xc2\x81\x9aD@'
p3801
tp3802
bsbsg31
g50
(g51
(I0
tp3803
g53
tp3804
Rp3805
(I1
(I2
tp3806
g16
I00
S'\xf6\t\xa0\x18YJ!\xc0\x86\x1c[\xcf\x10\x9aD@'
p3807
tp3808
bsbsg31
g50
(g51
(I0
tp3809
g53
tp3810
Rp3811
(I1
(I2
tp3812
g16
I00
S'\xd9\xb0\xa6\xb2(L!\xc0&\xa6\x0b\xb1\xfa\x99D@'
p3813
tp3814
bsbsg10
(lp3815
g12
(g16
S'v\xa9\x17p\xae2!\xc0'
p3816
tp3817
Rp3818
ag12
(g16
S'?!2\xbeD\x97D@'
p3819
tp3820
Rp3821
asg25
Nsg27
F1.0253635582301155
sg28
Nsg30
(inode
Node
p3822
(dp3823
g5
(inode
Node
p3824
(dp3825
g5
Nsg10
(lp3826
g12
(g16
S'\xab\x9c\xb9FI\x0b!\xc0'
p3827
tp3828
Rp3829
ag12
(g16
S'q\xe7\x03\x84\x13\x9cD@'
p3830
tp3831
Rp3832
asg25
(lp3833
I21
aI21
aI21
aI21
aI21
aI21
aI21
asg27
Nsg28
(lp3834
I176
aI1072
aI1292
aI1549
aI1933
aI2296
aI2763
asg30
Nsg31
Nsbsg10
(lp3835
g12
(g16
S'\xaf\x15\x03\xbc\x038!\xc0'
p3836
tp3837
Rp3838
ag12
(g16
S'#P\xfd\x83\xc8\x97D@'
p3839
tp3840
Rp3841
asg25
Nsg27
F1.2582128855702746
sg28
Nsg30
(inode
Node
p3842
(dp3843
g5
(inode
Node
p3844
(dp3845
g5
Nsg10
(lp3846
g12
(g16
S'\xa1\xd8\n\x9a\x96@!\xc0'
p3847
tp3848
Rp3849
ag12
(g16
S'\xfec!:\x04\x94D@'
p3850
tp3851
Rp3852
asg25
(lp3853
I22
asg27
Nsg28
(lp3854
I2912
asg30
Nsg31
Nsbsg10
(lp3855
g12
(g16
S'\xea|1\xb94@!\xc0'
p3856
tp3857
Rp3858
ag12
(g16
S')\xebV\xed\xac\x97D@'
p3859
tp3860
Rp3861
asg25
Nsg27
F0.9600440297749778
sg28
Nsg30
(inode
Node
p3862
(dp3863
g5
(inode
Node
p3864
(dp3865
g5
Nsg10
(lp3866
g12
(g16
S'\xdf\xfb\x1b\xb4WW!\xc0'
p3867
tp3868
Rp3869
ag12
(g16
S'+\xbf\x0c\xc6\x88\x9eD@'
p3870
tp3871
Rp3872
asg25
(lp3873
I23
asg27
Nsg28
(lp3874
I1253
asg30
Nsg31
Nsbsg10
(lp3875
g12
(g16
S'qs*\x19\x00<!\xc0'
p3876
tp3877
Rp3878
ag12
(g16
S'\x8d\x92j\xb2\xd9\x97D@'
p3879
tp3880
Rp3881
asg25
Nsg27
F1.0862985882804088
sg28
Nsg30
(inode
Node
p3882
(dp3883
g5
(inode
Node
p3884
(dp3885
g5
Nsg10
(lp3886
g12
(g16
S"\x02\xd9\xeb\xdd\x1f'!\xc0"
p3887
tp3888
Rp3889
ag12
(g16
S'\xeb\xc4\xe5x\x05\xa2D@'
p3890
tp3891
Rp3892
asg25
(lp3893
I24
asg27
Nsg28
(lp3894
I877
asg30
Nsg31
Nsbsg10
(lp3895
g12
(g16
S'\xf69\x0bI\x88;!\xc0'
p3896
tp3897
Rp3898
ag12
(g16
S'\xa7\xc4\x96\x83\xb0\x97D@'
p3899
tp3900
Rp3901
asg25
Nsg27
F1.101323392437822
sg28
Nsg30
(inode
Node
p3902
(dp3903
g5
(inode
Node
p3904
(dp3905
g5
Nsg10
(lp3906
g12
(g16
S'\xc5\x1fE\x9d\xb9?!\xc0'
p3907
tp3908
Rp3909
ag12
(g16
S'\xfcrf\xbbB\x8fD@'
p3910
tp3911
Rp3912
asg25
(lp3913
I25
aI25
aI25
asg27
Nsg28
(lp3914
I592
aI1674
aI2161
asg30
Nsg31
Nsbsg10
(lp3915
g12
(g16
S'\xef\xb9\x0bo&<!\xc0'
p3916
tp3917
Rp3918
ag12
(g16
S'\x13\x00\xcc#\xb2\x97D@'
p3919
tp3920
Rp3921
asg25
Nsg27
F1.0586723179572144
sg28
Nsg30
(inode
Node
p3922
(dp3923
g5
(inode
Node
p3924
(dp3925
g5
Nsg10
(lp3926
g12
(g16
S'\xab\x0c\x99\xe1\xf5\x17!\xc0'
p3927
tp3928
Rp3929
ag12
(g16
S'\x04\xf9~\x0f\x03\x95D@'
p3930
tp3931
Rp3932
asg25
(lp3933
I26
aI26
aI26
aI26
aI26
aI26
aI26
aI26
aI26
aI26
asg27
Nsg28
(lp3934
I173
aI848
aI890
aI1905
aI2015
aI2035
aI2267
aI2368
aI2553
aI2980
asg30
Nsg31
Nsbsg10
(lp3935
g12
(g16
S'X\x12\xbf\x0b\x95;!\xc0'
p3936
tp3937
Rp3938
ag12
(g16
S'[\xb4\xe3D\xfa\x97D@'
p3939
tp3940
Rp3941
asg25
Nsg27
F1.0283198618880847
sg28
Nsg30
(inode
Node
p3942
(dp3943
g5
(inode
Node
p3944
(dp3945
g5
Nsg10
(lp3946
g12
(g16
S'/\xc6\xc0:\x8eG!\xc0'
p3947
tp3948
Rp3949
ag12
(g16
S'\x15\x92\xcc\xea\x9d\x96D@'
p3950
tp3951
Rp3952
asg25
(lp3953
I27
aI27
aI27
aI27
aI27
aI27
aI27
aI27
aI27
aI27
aI27
aI27
asg27
Nsg28
(lp3954
I71
aI82
aI91
aI480
aI602
aI1104
aI1201
aI1558
aI1757
aI2359
aI2531
aI2549
asg30
Nsg31
Nsbsg10
(lp3955
g12
(g16
S'\xbd\x1dn\xb61A!\xc0'
p3956
tp3957
Rp3958
ag12
(g16
S'\xff\xab\x1b\x1e:\x98D@'
p3959
tp3960
Rp3961
asg25
Nsg27
F1.1148295103673511
sg28
Nsg30
(inode
Node
p3962
(dp3963
g5
(inode
Node
p3964
(dp3965
g5
Nsg10
(lp3966
g12
(g16
S'\x8b\x02\xe7m\xb7<!\xc0'
p3967
tp3968
Rp3969
ag12
(g16
S'\xf4\x84\xbb\xd2\xe7\x97D@'
p3970
tp3971
Rp3972
asg25
(lp3973
I28
aI28
aI28
aI28
aI28
aI28
aI28
aI28
aI28
aI28
aI28
aI28
aI28
aI28
aI28
aI28
aI28
aI28
aI28
aI28
aI28
aI28
asg27
Nsg28
(lp3974
I214
aI295
aI330
aI401
aI415
aI724
aI1245
aI1304
aI1331
aI1524
aI1570
aI1825
aI1943
aI1962
aI2010
aI2020
aI2026
aI2116
aI2345
aI2874
aI2896
aI2984
asg30
Nsg31
Nsbsg10
(lp3975
g12
(g16
S'\xab\xea@1\r=!\xc0'
p3976
tp3977
Rp3978
ag12
(g16
S'\x96\x9f\nn\xba\x97D@'
p3979
tp3980
Rp3981
asg25
Nsg27
F1.0266320952438799
sg28
Nsg30
(inode
Node
p3982
(dp3983
g5
(inode
Node
p3984
(dp3985
g5
Nsg10
(lp3986
g12
(g16
S';\xe1%8\xf51!\xc0'
p3987
tp3988
Rp3989
ag12
(g16
S'\xa6\xb7?\x17\r\x93D@'
p3990
tp3991
Rp3992
asg25
(lp3993
I29
asg27
Nsg28
(lp3994
I1991
asg30
Nsg31
Nsbsg10
(lp3995
g12
(g16
S'\xf9\x0f\x1d\x03\xe5<!\xc0'
p3996
tp3997
Rp3998
ag12
(g16
S'T\xb7\xe3\x82g\x98D@'
p3999
tp4000
Rp4001
asg25
Nsg27
F1.1886154173772017
sg28
Nsg30
(inode
Node
p4002
(dp4003
g5
(inode
Node
p4004
(dp4005
g5
Nsg10
(lp4006
g12
(g16
S'\xf8n\xf3\xc6II!\xc0'
p4007
tp4008
Rp4009
ag12
(g16
S'\x80\xbd\xfc-\x85\x98D@'
p4010
tp4011
Rp4012
asg25
(lp4013
I30
aI30
aI30
aI30
aI30
aI30
aI30
aI30
aI30
aI30
aI30
aI30
aI30
aI30
aI30
aI30
aI30
aI30
aI30
aI30
aI30
aI30
aI30
aI30
aI30
asg27
Nsg28
(lp4014
I45
aI405
aI421
aI650
aI687
aI714
aI755
aI866
aI932
aI1005
aI1008
aI1053
aI1112
aI1135
aI1493
aI1589
aI1663
aI1877
aI1896
aI2114
aI2222
aI2406
aI2603
aI2776
aI2784
asg30
Nsg31
Nsbsg10
(lp4015
g12
(g16
S'\xc4\xc6\xc5?WD!\xc0'
p4016
tp4017
Rp4018
ag12
(g16
S'\x9d\x88oF\xca\x98D@'
p4019
tp4020
Rp4021
asg25
Nsg27
F0.5114411146082701
sg28
Nsg30
(inode
Node
p4022
(dp4023
g5
Nsg10
(lp4024
g12
(g16
S'\xd7Q\xd5\x04Q?!\xc0'
p4025
tp4026
Rp4027
ag12
(g16
S'\x1f\x14\x94\xa2\xa5\x98D@'
p4028
tp4029
Rp4030
asg25
(lp4031
I31
aI31
aI31
aI31
aI31
aI31
aI31
aI31
aI31
aI31
aI31
aI31
aI31
aI31
aI31
aI31
aI31
aI31
aI31
aI31
aI31
aI31
aI31
aI31
aI31
aI31
aI31
aI31
aI31
aI31
aI31
aI31
asg27
Nsg28
(lp4032
I16
aI24
aI39
aI182
aI205
aI382
aI457
aI516
aI531
aI538
aI641
aI683
aI769
aI797
aI830
aI832
aI963
aI1096
aI1357
aI1415
aI1766
aI1810
aI2095
aI2096
aI2101
aI2224
aI2329
aI2444
aI2816
aI2821
aI2897
aI2945
asg30
Nsg31
Nsbsg31
g50
(g51
(I0
tp4033
g53
tp4034
Rp4035
(I1
(I2
tp4036
g16
I00
S'\x9e\xd3,\xd0\xeeP!\xc0\xb8V{\xd8\x0b\x97D@'
p4037
tp4038
bsbsg31
g50
(g51
(I0
tp4039
g53
tp4040
Rp4041
(I1
(I2
tp4042
g16
I00
S'g\x9e\\S S!\xc0\x8b\xc4\x045|\x97D@'
p4043
tp4044
bsbsg31
g50
(g51
(I0
tp4045
g53
tp4046
Rp4047
(I1
(I2
tp4048
g16
I00
S'}<\xf4\xdd\xadT!\xc0\xf1\xbcTl\xcc\x97D@'
p4049
tp4050
bsbsg31
g50
(g51
(I0
tp4051
g53
tp4052
Rp4053
(I1
(I2
tp4054
g16
I00
S'\xe3\xfaw}\xe6T!\xc0W\x07@\xdc\xd5\x97D@'
p4055
tp4056
bsbsg31
g50
(g51
(I0
tp4057
g53
tp4058
Rp4059
(I1
(I2
tp4060
g16
I00
S'1\xb6\x10\xe4\xa0T!\xc0\x11r\xde\xff\xc7\x97D@'
p4061
tp4062
bsbsg31
g50
(g51
(I0
tp4063
g53
tp4064
Rp4065
(I1
(I2
tp4066
g16
I00
S'H\xc3)s\xf3U!\xc0\xdd@\x81w\xf2\x97D@'
p4067
tp4068
bsbsg31
g50
(g51
(I0
tp4069
g53
tp4070
Rp4071
(I1
(I2
tp4072
g16
I00
S'\xaa\x0e\xb9\x19nX!\xc0\xb0\x8c\r\xdd\xec\x97D@'
p4073
tp4074
bsbsg31
g50
(g51
(I0
tp4075
g53
tp4076
Rp4077
(I1
(I2
tp4078
g16
I00
S'yZ~\xe0*W!\xc0\x83\xa3\xe4\xd59\x98D@'
p4079
tp4080
bsbsg31
g50
(g51
(I0
tp4081
g53
tp4082
Rp4083
(I1
(I2
tp4084
g16
I00
S'\xc9\xcc\x05.\x8fU!\xc0|\xf1E{\xbc\x98D@'
p4085
tp4086
bsbsg31
g50
(g51
(I0
tp4087
g53
tp4088
Rp4089
(I1
(I2
tp4090
g16
I00
S'd\xad\xa1\xd4^T!\xc0\xc24\x0c\x1f\x11\x99D@'
p4091
tp4092
bsbsg31
g50
(g51
(I0
tp4093
g53
tp4094
Rp4095
(I1
(I2
tp4096
g16
I00
S'i\xac\xfd\x9d\xedQ!\xc0.u\x90\xd7\x83\x99D@'
p4097
tp4098
bsbsg31
g50
(g51
(I0
tp4099
g53
tp4100
Rp4101
(I1
(I2
tp4102
g16
I00
S'\xd3\xa3\xa9\x9e\xccO!\xc0-@\xdbj\xd6\x99D@'
p4103
tp4104
bsbsg31
g50
(g51
(I0
tp4105
g53
tp4106
Rp4107
(I1
(I2
tp4108
g16
I00
S'\xd2Q\x0ef\x13P!\xc0\xfa\x9a\xe5\xb2\xd1\x99D@'
p4109
tp4110
bsbsg31
g50
(g51
(I0
tp4111
g53
tp4112
Rp4113
(I1
(I2
tp4114
g16
I00
S'R`\x01L\x19P!\xc0\xb4"j\xa2\xcf\x99D@'
p4115
tp4116
bsbsg31
g50
(g51
(I0
tp4117
g53
tp4118
Rp4119
(I1
(I2
tp4120
g16
I00
S'=\x0f\xee\xce\xdaM!\xc0\xeb6\xa8\xfd\xd6\x9aD@'
p4121
tp4122
bsbsg31
g50
(g51
(I0
tp4123
g53
tp4124
Rp4125
(I1
(I2
tp4126
g16
I00
S'\x89\tj\xf8\x16N!\xc01\x06\xd6q\xfc\x9aD@'
p4127
tp4128
bsbsg31
g50
(g51
(I0
tp4129
g53
tp4130
Rp4131
(I1
(I2
tp4132
g16
I00
S'\x88HM\xbb\x98N!\xc0\xfe++MJ\x9bD@'
p4133
tp4134
bsbsg31
g50
(g51
(I0
tp4135
g53
tp4136
Rp4137
(I1
(I2
tp4138
g16
I00
S"\xecO\xe2s'P!\xc0\xb0\x01\x11\xe2\xca\x9bD@"
p4139
tp4140
bsbsg31
g50
(g51
(I0
tp4141
g53
tp4142
Rp4143
(I1
(I2
tp4144
g16
I00
S'\x84\xbd\x89!9Q!\xc0\x9c\xdc\xefP\x14\x9cD@'
p4145
tp4146
bsbsg31
g50
(g51
(I0
tp4147
g53
tp4148
Rp4149
(I1
(I2
tp4150
g16
I00
S'f\x12\xf5\x82OS!\xc0\xa8\xfd\xd6N\x94\x9cD@'
p4151
tp4152
bsbsg31
g50
(g51
(I0
tp4153
g53
tp4154
Rp4155
(I1
(I2
tp4156
g16
I00
S'\x9e\xd3,\xd0\xeeP!\xc0;\x01M\x84\r\x9dD@'
p4157
tp4158
bsbsg10
(lp4159
g12
(g16
S'\xcfx\xfe!\xf18!\xc0'
p4160
tp4161
Rp4162
ag12
(g16
S'\x04\xbe\x88\xbct\x97D@'
p4163
tp4164
Rp4165
asg25
Nsg27
F1.1178478902288105
sg28
Nsg30
(inode
Node
p4166
(dp4167
g5
(inode
Node
p4168
(dp4169
g5
(inode
Node
p4170
(dp4171
g5
Nsg10
(lp4172
g12
(g16
S'\xb1C\x93P\xd7)!\xc0'
p4173
tp4174
Rp4175
ag12
(g16
S'_\x83\xe1\xc56\x98D@'
p4176
tp4177
Rp4178
asg25
(lp4179
I11
aI11
aI11
aI11
aI11
aI11
aI11
aI11
aI11
aI11
aI11
aI11
aI11
asg27
Nsg28
(lp4180
I62
aI192
aI870
aI1031
aI1141
aI1646
aI1703
aI2247
aI2466
aI2559
aI2671
aI2785
aI3004
asg30
Nsg31
Nsbsg10
(lp4181
g12
(g16
S'\xc2\x18:\x1fG?!\xc0'
p4182
tp4183
Rp4184
ag12
(g16
S'P\x9c\xebCf\x98D@'
p4185
tp4186
Rp4187
asg25
Nsg27
F1.594530018694015
sg28
Nsg30
(inode
Node
p4188
(dp4189
g5
(inode
Node
p4190
(dp4191
g5
Nsg10
(lp4192
g12
(g16
S'R\xd7\xda\xfbT=!\xc0'
p4193
tp4194
Rp4195
ag12
(g16
S'5\x99\xf1\xb6\xd2\x97D@'
p4196
tp4197
Rp4198
asg25
(lp4199
I12
aI12
aI12
asg27
Nsg28
(lp4200
I1422
aI1802
aI2737
asg30
Nsg31
Nsbsg10
(lp4201
g12
(g16
S'\xe4\x10\x93\xe8L=!\xc0'
p4202
tp4203
Rp4204
ag12
(g16
S'\xa9\xc3\xc6\xcc7\x98D@'
p4205
tp4206
Rp4207
asg25
Nsg27
F1.0286294736949975
sg28
Nsg30
(inode
Node
p4208
(dp4209
g5
(inode
Node
p4210
(dp4211
g5
Nsg10
(lp4212
g12
(g16
S'\x93ze\xc1M7!\xc0'
p4213
tp4214
Rp4215
ag12
(g16
S'n\x90\x0c\xf8z\x98D@'
p4216
tp4217
Rp4218
asg25
(lp4219
I13
aI13
aI13
aI13
aI13
aI13
aI13
aI13
aI13
aI13
aI13
aI13
aI13
aI13
aI13
aI13
aI13
aI13
aI13
aI13
aI13
aI13
aI13
aI13
aI13
aI13
aI13
aI13
aI13
aI13
aI13
aI13
aI13
aI13
aI13
aI13
aI13
aI13
aI13
aI13
aI13
aI13
aI13
aI13
aI13
aI13
aI13
aI13
aI13
asg27
Nsg28
(lp4220
I149
aI168
aI361
aI443
aI460
aI491
aI582
aI583
aI713
aI798
aI826
aI1003
aI1011
aI1041
aI1044
aI1100
aI1126
aI1189
aI1295
aI1298
aI1329
aI1373
aI1483
aI1510
aI1635
aI1636
aI1730
aI1791
aI1884
aI1936
aI1953
aI1955
aI1997
aI2012
aI2141
aI2177
aI2203
aI2333
aI2360
aI2386
aI2454
aI2524
aI2536
aI2661
aI2725
aI2799
aI2824
aI2909
aI3013
asg30
Nsg31
Nsbsg10
(lp4221
g12
(g16
S'\x00\xf6\x1b7F<!\xc0'
p4222
tp4223
Rp4224
ag12
(g16
S'\xda\x05\xde$a\x97D@'
p4225
tp4226
Rp4227
asg25
Nsg27
F1.2868088160498736
sg28
Nsg30
(inode
Node
p4228
(dp4229
g5
(inode
Node
p4230
(dp4231
g5
Nsg10
(lp4232
g12
(g16
S'\x04\xff[\xc9\x8em!\xc0'
p4233
tp4234
Rp4235
ag12
(g16
S'l\xaf\x05\xbd7\x9aD@'
p4236
tp4237
Rp4238
asg25
(lp4239
I14
asg27
Nsg28
(lp4240
I1276
asg30
Nsg31
Nsbsg10
(lp4241
g12
(g16
S'0\xbdr\xf1i?!\xc0'
p4242
tp4243
Rp4244
ag12
(g16
S'\xe9\xfc\xbd\xfa\x9f\x96D@'
p4245
tp4246
Rp4247
asg25
Nsg27
F0.9702517678068953
sg28
Nsg30
(inode
Node
p4248
(dp4249
g5
(inode
Node
p4250
(dp4251
g5
Nsg10
(lp4252
g12
(g16
S'\x94\xc1Q\xf2\xea@!\xc0'
p4253
tp4254
Rp4255
ag12
(g16
S' e\xc4\x05\xa0\x98D@'
p4256
tp4257
Rp4258
asg25
(lp4259
I15
aI15
asg27
Nsg28
(lp4260
I407
aI1592
asg30
Nsg31
Nsbsg10
(lp4261
g12
(g16
S'\xb2\x19S\x81\x1b<!\xc0'
p4262
tp4263
Rp4264
ag12
(g16
S'\x17\xfd\xe0\x91\x92\x98D@'
p4265
tp4266
Rp4267
asg25
Nsg27
F1.0404675368731238
sg28
Nsg30
(inode
Node
p4268
(dp4269
g5
(inode
Node
p4270
(dp4271
g5
Nsg10
(lp4272
g12
(g16
S'\xbag]\xa3\xe5@!\xc0'
p4273
tp4274
Rp4275
ag12
(g16
S'YNB\xe9\x0b\x93D@'
p4276
tp4277
Rp4278
asg25
(lp4279
I16
asg27
Nsg28
(lp4280
I2659
asg30
Nsg31
Nsbsg10
(lp4281
g12
(g16
S'\xc5\x81|\x8d\xec<!\xc0'
p4282
tp4283
Rp4284
ag12
(g16
S'u\x04\x05\xae\xdc\x98D@'
p4285
tp4286
Rp4287
asg25
Nsg27
F1.006371425874431
sg28
Nsg30
(inode
Node
p4288
(dp4289
g5
(inode
Node
p4290
(dp4291
g5
Nsg10
(lp4292
g12
(g16
S'&\x8e<\x10YL!\xc0'
p4293
tp4294
Rp4295
ag12
(g16
S'\x9d)t^c\x9bD@'
p4296
tp4297
Rp4298
asg25
(lp4299
I17
aI17
aI17
asg27
Nsg28
(lp4300
I1492
aI2764
aI2917
asg30
Nsg31
Nsbsg10
(lp4301
g12
(g16
S'\x92\x8er0\x9b<!\xc0'
p4302
tp4303
Rp4304
ag12
(g16
S"\xfc\xe3'\xb6\xcd\x98D@"
p4305
tp4306
Rp4307
asg25
Nsg27
F1.0590873287279152
sg28
Nsg30
(inode
Node
p4308
(dp4309
g5
(inode
Node
p4310
(dp4311
g5
Nsg10
(lp4312
g12
(g16
S'\x84\x9c\xf7\xffqB!\xc0'
p4313
tp4314
Rp4315
ag12
(g16
S'\xa0\xe0bE\r\x9aD@'
p4316
tp4317
Rp4318
asg25
(lp4319
I18
aI18
asg27
Nsg28
(lp4320
I1640
aI1731
asg30
Nsg31
Nsbsg10
(lp4321
g12
(g16
S'\x9f\x83\xed\xa5\xec;!\xc0'
p4322
tp4323
Rp4324
ag12
(g16
S'm\\@\xea\xb3\x98D@'
p4325
tp4326
Rp4327
asg25
Nsg27
F1.2660452006101832
sg28
Nsg30
(inode
Node
p4328
(dp4329
g5
(inode
Node
p4330
(dp4331
g5
Nsg10
(lp4332
g12
(g16
S'-`\x02\xb7\xeeV!\xc0'
p4333
tp4334
Rp4335
ag12
(g16
S'\xcb\x82\x89?\x8a\x9eD@'
p4336
tp4337
Rp4338
asg25
(lp4339
I19
asg27
Nsg28
(lp4340
I1653
asg30
Nsg31
Nsbsg10
(lp4341
g12
(g16
S'\xa8\x9b\x8c\xd0\x91C!\xc0'
p4342
tp4343
Rp4344
ag12
(g16
S'\x00\xe9H\xcd\x03\x99D@'
p4345
tp4346
Rp4347
asg25
Nsg27
F1.596885779364233
sg28
Nsg30
(inode
Node
p4348
(dp4349
g5
(inode
Node
p4350
(dp4351
g5
Nsg10
(lp4352
g12
(g16
S'\xbb\xa0\xbeeN7!\xc0'
p4353
tp4354
Rp4355
ag12
(g16
S'\x90\xbf\xb4\xa8O\x9eD@'
p4356
tp4357
Rp4358
asg25
(lp4359
I20
aI20
aI20
asg27
Nsg28
(lp4360
I171
aI2775
aI2990
asg30
Nsg31
Nsbsg10
(lp4361
g12
(g16
S'\x99\x96\xfd_\x1aC!\xc0'
p4362
tp4363
Rp4364
ag12
(g16
S'\xd7-\x02c\xfd\x98D@'
p4365
tp4366
Rp4367
asg25
Nsg27
F1.1810579211312746
sg28
Nsg30
(inode
Node
p4368
(dp4369
g5
(inode
Node
p4370
(dp4371
g5
Nsg10
(lp4372
g12
(g16
S'\x8bq\xfe&\x14"!\xc0'
p4373
tp4374
Rp4375
ag12
(g16
S'\x8e\xeb\xdf\xf5\x99\x99D@'
p4376
tp4377
Rp4378
asg25
(lp4379
I21
asg27
Nsg28
(lp4380
I2341
asg30
Nsg31
Nsbsg10
(lp4381
g12
(g16
S'9\xad\xf3xHD!\xc0'
p4382
tp4383
Rp4384
ag12
(g16
S'\xc4\xcabn\xdf\x98D@'
p4385
tp4386
Rp4387
asg25
Nsg27
F1.133286750712848
sg28
Nsg30
(inode
Node
p4388
(dp4389
g5
(inode
Node
p4390
(dp4391
g5
Nsg10
(lp4392
g12
(g16
S'Sz\xa6\x97\x18W!\xc0'
p4393
tp4394
Rp4395
ag12
(g16
S'\xc23\xa1Ib\x9eD@'
p4396
tp4397
Rp4398
asg25
(lp4399
I22
aI22
asg27
Nsg28
(lp4400
I38
aI1705
asg30
Nsg31
Nsbsg10
(lp4401
g12
(g16
S'\xfe++MJD!\xc0'
p4402
tp4403
Rp4404
ag12
(g16
S'.Nx\xc8\x92\x98D@'
p4405
tp4406
Rp4407
asg25
Nsg27
F1.7538374486265438
sg28
Nsg30
(inode
Node
p4408
(dp4409
g5
(inode
Node
p4410
(dp4411
g5
Nsg10
(lp4412
g12
(g16
S'\xc0\xe8\xf2\xe6p=!\xc0'
p4413
tp4414
Rp4415
ag12
(g16
S'$\xb7&\xdd\x96\x90D@'
p4416
tp4417
Rp4418
asg25
(lp4419
I23
asg27
Nsg28
(lp4420
I333
asg30
Nsg31
Nsbsg10
(lp4421
g12
(g16
S'\x8a\xae\x0b?8C!\xc0'
p4422
tp4423
Rp4424
ag12
(g16
S'\xf8\x85j]}\x98D@'
p4425
tp4426
Rp4427
asg25
Nsg27
F1.0989533059248748
sg28
Nsg30
(inode
Node
p4428
(dp4429
g5
(inode
Node
p4430
(dp4431
g5
Nsg10
(lp4432
g12
(g16
S';\xe1%8\xf51!\xc0'
p4433
tp4434
Rp4435
ag12
(g16
S'\xa6\xb7?\x17\r\x93D@'
p4436
tp4437
Rp4438
asg25
(lp4439
I24
asg27
Nsg28
(lp4440
I2526
asg30
Nsg31
Nsbsg10
(lp4441
g12
(g16
S'\x929\xa4osD!\xc0'
p4442
tp4443
Rp4444
ag12
(g16
S'g\xd9\xb8\xae\x06\x99D@'
p4445
tp4446
Rp4447
asg25
Nsg27
F1.0101241937571572
sg28
Nsg30
(inode
Node
p4448
(dp4449
g5
(inode
Node
p4450
(dp4451
g5
Nsg10
(lp4452
g12
(g16
S'\x14\xed*\xa4\xfc\xd4 \xc0'
p4453
tp4454
Rp4455
ag12
(g16
S'\xac\x8f\x87\xbe\xbb\xc5D@'
p4456
tp4457
Rp4458
asg25
(lp4459
I25
asg27
Nsg28
(lp4460
I2768
asg30
Nsg31
Nsbsg10
(lp4461
g12
(g16
S'\xe7s\xeev\xbdD!\xc0'
p4462
tp4463
Rp4464
ag12
(g16
S'\xfe\xe0+\x00\x18\x99D@'
p4465
tp4466
Rp4467
asg25
Nsg27
F1.0401411576461683
sg28
Nsg30
(inode
Node
p4468
(dp4469
g5
(inode
Node
p4470
(dp4471
g5
Nsg10
(lp4472
g12
(g16
S's\xd8}\xc7\xf0D!\xc0'
p4473
tp4474
Rp4475
ag12
(g16
S'0b\x9f\x00\x8a\x9bD@'
p4476
tp4477
Rp4478
asg25
(lp4479
I26
aI26
asg27
Nsg28
(lp4480
I790
aI1852
asg30
Nsg31
Nsbsg10
(lp4481
g12
(g16
S'\x06v\xed\xc32F!\xc0'
p4482
tp4483
Rp4484
ag12
(g16
S'\xca<SI\xfe\x97D@'
p4485
tp4486
Rp4487
asg25
Nsg27
F1.0863040127427235
sg28
Nsg30
(inode
Node
p4488
(dp4489
g5
Nsg10
(lp4490
g12
(g16
S'R\xeeb\xa5WC!\xc0'
p4491
tp4492
Rp4493
ag12
(g16
S'orDN\xc4\x98D@'
p4494
tp4495
Rp4496
asg25
(lp4497
I27
aI27
aI27
aI27
aI27
aI27
aI27
aI27
aI27
aI27
aI27
aI27
aI27
aI27
aI27
aI27
aI27
aI27
aI27
aI27
aI27
aI27
aI27
aI27
aI27
aI27
aI27
aI27
aI27
aI27
aI27
aI27
aI27
aI27
aI27
aI27
aI27
aI27
aI27
aI27
aI27
aI27
aI27
aI27
aI27
aI27
aI27
aI27
aI27
asg27
Nsg28
(lp4498
I116
aI146
aI158
aI200
aI270
aI310
aI423
aI616
aI638
aI688
aI766
aI771
aI784
aI1017
aI1081
aI1083
aI1095
aI1122
aI1198
aI1235
aI1262
aI1382
aI1472
aI1485
aI1712
aI1737
aI1939
aI2003
aI2007
aI2041
aI2062
aI2149
aI2168
aI2323
aI2327
aI2383
aI2400
aI2433
aI2441
aI2632
aI2651
aI2676
aI2711
aI2751
aI2758
aI2923
aI2926
aI2954
aI2988
asg30
Nsg31
Nsbsg31
g50
(g51
(I0
tp4499
g53
tp4500
Rp4501
(I1
(I2
tp4502
g16
I00
S'\x96\xebm3\x15*!\xc0\xa5\xdc}\x8e\x8f\x9eD@'
p4503
tp4504
bsbsg31
g50
(g51
(I0
tp4505
g53
tp4506
Rp4507
(I1
(I2
tp4508
g16
I00
S'\xc3\xf2\xe7\xdb\x82-!\xc0\xe5\x0c\xc5\x1do\x9eD@'
p4509
tp4510
bsbsg31
g50
(g51
(I0
tp4511
g53
tp4512
Rp4513
(I1
(I2
tp4514
g16
I00
S'\xa5\xc0\x02\x9820!\xc0?X\xc6\x86n\x9eD@'
p4515
tp4516
bsbsg31
g50
(g51
(I0
tp4517
g53
tp4518
Rp4519
(I1
(I2
tp4520
g16
I00
S'l!\xc8A\t3!\xc0\xa5\x16J&\xa7\x9eD@'
p4521
tp4522
bsbsg31
g50
(g51
(I0
tp4523
g53
tp4524
Rp4525
(I1
(I2
tp4526
g16
I00
S'\x9e\n\xb8\xe7\xf93!\xc0x\x9c\xa2#\xb9\x9eD@'
p4527
tp4528
bsbsg31
g50
(g51
(I0
tp4529
g53
tp4530
Rp4531
(I1
(I2
tp4532
g16
I00
S'\x94\x16.\xab\xb09!\xc0e\x8fP3\xa4\x9eD@'
p4533
tp4534
bsbsg31
g50
(g51
(I0
tp4535
g53
tp4536
Rp4537
(I1
(I2
tp4538
g16
I00
S'B\xed\xb7v\xa2<!\xc0^\xbb\xb4\xe1\xb0\x9eD@'
p4539
tp4540
bsbsg31
g50
(g51
(I0
tp4541
g53
tp4542
Rp4543
(I1
(I2
tp4544
g16
I00
S'V\x9f\xab\xad\xd8?!\xc0>z\xc3}\xe4\x9eD@'
p4545
tp4546
bsbsg31
g50
(g51
(I0
tp4547
g53
tp4548
Rp4549
(I1
(I2
tp4550
g16
I00
S'\x02\x11\xe2\xca\xd9C!\xc0D\x14\x937\xc0\x9eD@'
p4551
tp4552
bsbsg31
g50
(g51
(I0
tp4553
g53
tp4554
Rp4555
(I1
(I2
tp4556
g16
I00
S'ak\xb6\xf2\x92G!\xc0>\xe9D\x82\xa9\x9eD@'
p4557
tp4558
bsbsg31
g50
(g51
(I0
tp4559
g53
tp4560
Rp4561
(I1
(I2
tp4562
g16
I00
S'+\xc2MF\x95I!\xc0\x85\n\x0e/\x88\x9eD@'
p4563
tp4564
bsbsg31
g50
(g51
(I0
tp4565
g53
tp4566
Rp4567
(I1
(I2
tp4568
g16
I00
S'\x8a\x90\xba\x9d}M!\xc0\xdeU\x0f\x98\x87\x9eD@'
p4569
tp4570
bsbsg31
g50
(g51
(I0
tp4571
g53
tp4572
Rp4573
(I1
(I2
tp4574
g16
I00
S'\xee\xcc\x04\xc3\xb9N!\xc02\xc8]\x84)\x9eD@'
p4575
tp4576
bsbsg31
g50
(g51
(I0
tp4577
g53
tp4578
Rp4579
(I1
(I2
tp4580
g16
I00
S'\xef;\x86\xc7~N!\xc0\xb9\xa5\xd5\x90\xb8\x9dD@'
p4581
tp4582
bsbsg31
g50
(g51
(I0
tp4583
g53
tp4584
Rp4585
(I1
(I2
tp4586
g16
I00
S'\x06\xb8 [\x96O!\xc0\x81\nG\x90J\x9dD@'
p4587
tp4588
bsbsg31
g50
(g51
(I0
tp4589
g53
tp4590
Rp4591
(I1
(I2
tp4592
g16
I00
S'\x9d\xd8C\xfbXQ!\xc0G\xc6j\xf3\xff\x9cD@'
p4593
tp4594
bsbsg10
(lp4595
g12
(g16
S'\x1d\xfc\x03\xf3\x9a7!\xc0'
p4596
tp4597
Rp4598
ag12
(g16
S'x\x04m\xfc\xe9\x97D@'
p4599
tp4600
Rp4601
asg25
Nsg27
F1.2580313575360893
sg28
Nsg30
(inode
Node
p4602
(dp4603
g5
(inode
Node
p4604
(dp4605
g5
(inode
Node
p4606
(dp4607
g5
Nsg10
(lp4608
g12
(g16
S'\xfbm{\xf9\x07B!\xc0'
p4609
tp4610
Rp4611
ag12
(g16
S'\x81\xb8`}\xc5\x98D@'
p4612
tp4613
Rp4614
asg25
(lp4615
I12
aI12
aI12
aI12
aI12
aI12
aI12
aI12
aI12
aI12
aI12
aI12
aI12
aI12
aI12
aI12
aI12
aI12
aI12
aI12
aI12
aI12
aI12
aI12
aI12
aI12
aI12
aI12
aI12
aI12
aI12
aI12
aI12
asg27
Nsg28
(lp4616
I209
aI226
aI434
aI496
aI591
aI692
aI774
aI776
aI812
aI913
aI1037
aI1266
aI1484
aI1490
aI1532
aI1615
aI1756
aI1902
aI2070
aI2081
aI2132
aI2148
aI2150
aI2217
aI2405
aI2493
aI2530
aI2660
aI2719
aI2728
aI2736
aI2745
aI2966
asg30
Nsg31
Nsbsg10
(lp4617
g12
(g16
S'Z\x98\xd0P\x1a,!\xc0'
p4618
tp4619
Rp4620
ag12
(g16
S'\x13\xdb\x0b\x07\x06\x98D@'
p4621
tp4622
Rp4623
asg25
Nsg27
F2.008933796820033
sg28
Nsg30
(inode
Node
p4624
(dp4625
g5
Nsg10
(lp4626
g12
(g16
S'Z\xbfN\xbebG!\xc0'
p4627
tp4628
Rp4629
ag12
(g16
S'\xa7\x9e\x05\xa1\xbc\x98D@'
p4630
tp4631
Rp4632
asg25
(lp4633
I13
aI13
aI13
aI13
aI13
aI13
aI13
aI13
aI13
aI13
aI13
aI13
aI13
aI13
aI13
aI13
aI13
aI13
aI13
aI13
aI13
aI13
asg27
Nsg28
(lp4634
I53
aI141
aI255
aI303
aI511
aI631
aI727
aI779
aI789
aI807
aI982
aI1518
aI1520
aI1540
aI1745
aI1797
aI2129
aI2166
aI2604
aI2740
aI2761
aI3021
asg30
Nsg31
Nsbsg31
g50
(g51
(I0
tp4635
g53
tp4636
Rp4637
(I1
(I2
tp4638
g16
I00
S'\x1dr3\xdc\x80_!\xc0\x80\x0f^\xbb\xb4\x9dD@'
p4639
tp4640
bsbsg10
(lp4641
g12
(g16
S'j\x91\xa1\x9243!\xc0'
p4642
tp4643
Rp4644
ag12
(g16
S'\xeb\xf4\xe0^\xda\x98D@'
p4645
tp4646
Rp4647
asg25
Nsg27
F1.0180258739787922
sg28
Nsg30
(inode
Node
p4648
(dp4649
g5
(inode
Node
p4650
(dp4651
g5
(inode
Node
p4652
(dp4653
g5
Nsg10
(lp4654
g12
(g16
S'J\xb2\x0eG\xd7H!\xc0'
p4655
tp4656
Rp4657
ag12
(g16
S'v4\x0e\xf5\xab\x98D@'
p4658
tp4659
Rp4660
asg25
(lp4661
I13
aI13
aI13
aI13
aI13
aI13
aI13
aI13
aI13
aI13
aI13
aI13
aI13
aI13
aI13
aI13
aI13
aI13
aI13
aI13
aI13
aI13
aI13
aI13
aI13
aI13
aI13
aI13
aI13
aI13
aI13
aI13
asg27
Nsg28
(lp4662
I4
aI113
aI150
aI414
aI470
aI490
aI594
aI681
aI815
aI951
aI1016
aI1499
aI1624
aI1678
aI1814
aI1957
aI1975
aI2143
aI2154
aI2184
aI2295
aI2343
aI2348
aI2448
aI2546
aI2596
aI2643
aI2795
aI2800
aI2883
aI2921
aI2999
asg30
Nsg31
Nsbsg10
(lp4663
g12
(g16
S'ACC\x1c\x1d@!\xc0'
p4664
tp4665
Rp4666
ag12
(g16
S'"5\xde;g\x9bD@'
p4667
tp4668
Rp4669
asg25
Nsg27
F1.1454288865621238
sg28
Nsg30
(inode
Node
p4670
(dp4671
g5
(inode
Node
p4672
(dp4673
g5
Nsg10
(lp4674
g12
(g16
S'0\x0e.\x1dsF!\xc0'
p4675
tp4676
Rp4677
ag12
(g16
S'0\xf3\x1d\xfcD\x97D@'
p4678
tp4679
Rp4680
asg25
(lp4681
I14
aI14
aI14
aI14
asg27
Nsg28
(lp4682
I456
aI1090
aI1876
aI2258
asg30
Nsg31
Nsbsg10
(lp4683
g12
(g16
S'\xbb\xfb\x9e\x95\xf55!\xc0'
p4684
tp4685
Rp4686
ag12
(g16
S'\xc1\xf4x^k\x97D@'
p4687
tp4688
Rp4689
asg25
Nsg27
F1.1364918155171573
sg28
Nsg30
(inode
Node
p4690
(dp4691
g5
(inode
Node
p4692
(dp4693
g5
Nsg10
(lp4694
g12
(g16
S'X\x01\xbe\xdb\xbcQ!\xc0'
p4695
tp4696
Rp4697
ag12
(g16
S'\x07D\x88+g\x97D@'
p4698
tp4699
Rp4700
asg25
(lp4701
I15
aI15
aI15
asg27
Nsg28
(lp4702
I540
aI668
aI2117
asg30
Nsg31
Nsbsg10
(lp4703
g12
(g16
S'\xeb\x93b\x12VC!\xc0'
p4704
tp4705
Rp4706
ag12
(g16
S'\x95\x95\xf1\x17+\x99D@'
p4707
tp4708
Rp4709
asg25
Nsg27
F1.5683859958440343
sg28
Nsg30
(inode
Node
p4710
(dp4711
g5
(inode
Node
p4712
(dp4713
g5
Nsg10
(lp4714
g12
(g16
S'\x01Q0c\n6!\xc0'
p4715
tp4716
Rp4717
ag12
(g16
S'\xbc\xe7\xc0r\x84\x98D@'
p4718
tp4719
Rp4720
asg25
(lp4721
I16
asg27
Nsg28
(lp4722
I2395
asg30
Nsg31
Nsbsg10
(lp4723
g12
(g16
S'\xb6\xc8\x86\x9dFC!\xc0'
p4724
tp4725
Rp4726
ag12
(g16
S'W\xdc\x9b\xee\xc2\x98D@'
p4727
tp4728
Rp4729
asg25
Nsg27
F1.0543062504713583
sg28
Nsg30
(inode
Node
p4730
(dp4731
g5
(inode
Node
p4732
(dp4733
g5
Nsg10
(lp4734
g12
(g16
S"\xdc\xb7Z'.C!\xc0"
p4735
tp4736
Rp4737
ag12
(g16
S'@\xf6z\xf7\xc7\x99D@'
p4738
tp4739
Rp4740
asg25
(lp4741
I17
aI17
aI17
aI17
asg27
Nsg28
(lp4742
I1045
aI1486
aI2038
aI2590
asg30
Nsg31
Nsbsg10
(lp4743
g12
(g16
S'\xf7w\xb6GoD!\xc0'
p4744
tp4745
Rp4746
ag12
(g16
S'\xfb\xe5\x93\x15\xc3\x98D@'
p4747
tp4748
Rp4749
asg25
Nsg27
F0.7565233694852767
sg28
Nsg30
(inode
Node
p4750
(dp4751
g5
Nsg10
(lp4752
g12
(g16
S'}\x1ei\x91iD!\xc0'
p4753
tp4754
Rp4755
ag12
(g16
S'\x03p\xfd\x05\xcc\x98D@'
p4756
tp4757
Rp4758
asg25
(lp4759
I18
aI18
aI18
aI18
aI18
aI18
aI18
aI18
aI18
aI18
aI18
aI18
aI18
aI18
aI18
aI18
aI18
aI18
aI18
aI18
aI18
aI18
aI18
aI18
aI18
aI18
aI18
aI18
aI18
aI18
aI18
aI18
aI18
aI18
aI18
aI18
aI18
aI18
aI18
aI18
aI18
aI18
aI18
aI18
aI18
aI18
aI18
aI18
aI18
aI18
asg27
Nsg28
(lp4760
I18
aI77
aI102
aI148
aI157
aI183
aI211
aI227
aI243
aI249
aI298
aI302
aI314
aI354
aI441
aI510
aI575
aI729
aI853
aI891
aI938
aI976
aI1079
aI1109
aI1160
aI1211
aI1216
aI1282
aI1355
aI1408
aI1414
aI1478
aI1482
aI1717
aI1907
aI1918
aI2047
aI2086
aI2128
aI2240
aI2285
aI2407
aI2450
aI2492
aI2577
aI2645
aI2646
aI2755
aI2812
aI2948
asg30
Nsg31
Nsbsg31
g50
(g51
(I0
tp4761
g53
tp4762
Rp4763
(I1
(I2
tp4764
g16
I00
S'\xd5\x03\xe6!SN!\xc0\x18\x99\x80_#\x9bD@'
p4765
tp4766
bsbsg31
g50
(g51
(I0
tp4767
g53
tp4768
Rp4769
(I1
(I2
tp4770
g16
I00
S'm\x02\x0c\xcb\x9fO!\xc0j2\xe3m\xa5\x9bD@'
p4771
tp4772
bsbsg31
g50
(g51
(I0
tp4773
g53
tp4774
Rp4775
(I1
(I2
tp4776
g16
I00
S'\x9c\xc0tZ\xb7Q!\xc0\x1c%\xaf\xce1\x9cD@'
p4777
tp4778
bsbsg31
g50
(g51
(I0
tp4779
g53
tp4780
Rp4781
(I1
(I2
tp4782
g16
I00
S'\xee@\x9d\xf2\xe8N!\xc0\x95\xf0\x84^\x7f\x9cD@'
p4783
tp4784
bsbsg31
g50
(g51
(I0
tp4785
g53
tp4786
Rp4787
(I1
(I2
tp4788
g16
I00
S'\xfb\xb0\xde\xa8\x15V!\xc0\x1bG\xac\xc5\xa7\x9cD@'
p4789
tp4790
bsbsg10
(lp4791
g12
(g16
S'\x9e\x14\xcce\x967!\xc0'
p4792
tp4793
Rp4794
ag12
(g16
S'\xd5\xba\x16\x08\xa3\x99D@'
p4795
tp4796
Rp4797
asg25
Nsg27
F1.0143964729579662
sg28
Nsg30
(inode
Node
p4798
(dp4799
g5
(inode
Node
p4800
(dp4801
g5
Nsg10
(lp4802
g12
(g16
S'\x9b\xeeuR_6!\xc0'
p4803
tp4804
Rp4805
ag12
(g16
S'J\xae.\xb0j\x99D@'
p4806
tp4807
Rp4808
asg25
(lp4809
I14
aI14
aI14
aI14
aI14
aI14
aI14
aI14
aI14
aI14
aI14
aI14
aI14
aI14
aI14
aI14
aI14
aI14
aI14
aI14
aI14
aI14
aI14
aI14
aI14
aI14
aI14
aI14
aI14
aI14
aI14
aI14
aI14
aI14
aI14
aI14
aI14
aI14
aI14
aI14
aI14
asg27
Nsg28
(lp4810
I1
aI75
aI208
aI282
aI311
aI332
aI437
aI534
aI606
aI612
aI629
aI653
aI654
aI676
aI706
aI754
aI786
aI810
aI857
aI1137
aI1205
aI1213
aI1428
aI1480
aI1585
aI1659
aI1719
aI1804
aI1898
aI2205
aI2396
aI2403
aI2502
aI2528
aI2572
aI2610
aI2613
aI2627
aI2811
aI2985
aI3016
asg30
Nsg31
Nsbsg10
(lp4811
g12
(g16
S'\xba\x1d\xcf\xd5\xc85!\xc0'
p4812
tp4813
Rp4814
ag12
(g16
S'-\x9d\xae\xa6\xab\x98D@'
p4815
tp4816
Rp4817
asg25
Nsg27
F1.03103070020274
sg28
Nsg30
(inode
Node
p4818
(dp4819
g5
(inode
Node
p4820
(dp4821
g5
Nsg10
(lp4822
g12
(g16
S'\xd4\xf6\x83C\x05@!\xc0'
p4823
tp4824
Rp4825
ag12
(g16
S'5Y\xee\xf8\xed\x96D@'
p4826
tp4827
Rp4828
asg25
(lp4829
I15
aI15
aI15
aI15
aI15
aI15
aI15
aI15
aI15
aI15
aI15
aI15
aI15
aI15
aI15
aI15
aI15
aI15
aI15
aI15
aI15
aI15
aI15
aI15
aI15
aI15
aI15
aI15
aI15
aI15
aI15
aI15
aI15
aI15
aI15
aI15
aI15
aI15
aI15
aI15
aI15
aI15
aI15
aI15
asg27
Nsg28
(lp4830
I263
aI327
aI440
aI483
aI539
aI565
aI585
aI589
aI741
aI764
aI805
aI1014
aI1077
aI1247
aI1308
aI1349
aI1395
aI1403
aI1474
aI1626
aI1654
aI1854
aI1940
aI1980
aI2027
aI2065
aI2163
aI2195
aI2204
aI2214
aI2234
aI2238
aI2255
aI2363
aI2410
aI2436
aI2605
aI2704
aI2746
aI2804
aI2854
aI2894
aI2905
aI2918
asg30
Nsg31
Nsbsg10
(lp4831
g12
(g16
S'\xcf`\xb1XS7!\xc0'
p4832
tp4833
Rp4834
ag12
(g16
S'\xbe\xcbL6\x8c\x98D@'
p4835
tp4836
Rp4837
asg25
Nsg27
F1.113977640060193
sg28
Nsg30
(inode
Node
p4838
(dp4839
g5
(inode
Node
p4840
(dp4841
g5
Nsg10
(lp4842
g12
(g16
S'\x948+\xa2&(!\xc0'
p4843
tp4844
Rp4845
ag12
(g16
S'\xc4\xf9\x9bP\x08\x9cD@'
p4846
tp4847
Rp4848
asg25
(lp4849
I16
aI16
aI16
aI16
aI16
aI16
aI16
aI16
aI16
aI16
aI16
aI16
aI16
aI16
aI16
aI16
aI16
aI16
aI16
aI16
aI16
aI16
aI16
aI16
aI16
aI16
aI16
aI16
aI16
aI16
aI16
aI16
aI16
aI16
aI16
aI16
asg27
Nsg28
(lp4850
I19
aI25
aI119
aI125
aI268
aI346
aI389
aI411
aI433
aI662
aI1022
aI1076
aI1114
aI1162
aI1232
aI1263
aI1294
aI1330
aI1452
aI1475
aI1738
aI1776
aI1822
aI1878
aI2017
aI2191
aI2269
aI2315
aI2316
aI2438
aI2529
aI2532
aI2747
aI2779
aI3011
aI3027
asg30
Nsg31
Nsbsg10
(lp4851
g12
(g16
S'\xd7\x89\x08l`5!\xc0'
p4852
tp4853
Rp4854
ag12
(g16
S'\x8e!hV|\x98D@'
p4855
tp4856
Rp4857
asg25
Nsg27
F1.0925679634195409
sg28
Nsg30
(inode
Node
p4858
(dp4859
g5
(inode
Node
p4860
(dp4861
g5
Nsg10
(lp4862
g12
(g16
S'\xb6\xfd\xad\xa1\x15>!\xc0'
p4863
tp4864
Rp4865
ag12
(g16
S'i\xb2\xc0\xd9\xea\x99D@'
p4866
tp4867
Rp4868
asg25
(lp4869
I17
aI17
aI17
aI17
aI17
aI17
aI17
aI17
aI17
aI17
aI17
aI17
aI17
aI17
asg27
Nsg28
(lp4870
I74
aI126
aI601
aI718
aI958
aI1039
aI1240
aI1293
aI1323
aI1368
aI1710
aI2036
aI2649
aI2879
asg30
Nsg31
Nsbsg10
(lp4871
g12
(g16
S'\xbd\x87\x87\xa7{7!\xc0'
p4872
tp4873
Rp4874
ag12
(g16
S'8\xa1\xce\x90\x8f\x98D@'
p4875
tp4876
Rp4877
asg25
Nsg27
F1.0159075521799321
sg28
Nsg30
(inode
Node
p4878
(dp4879
g5
(inode
Node
p4880
(dp4881
g5
Nsg10
(lp4882
g12
(g16
S'\xc9W\xb5W\xd2)!\xc0'
p4883
tp4884
Rp4885
ag12
(g16
S'\xb9\xbb\x1bX\xdb\x99D@'
p4886
tp4887
Rp4888
asg25
(lp4889
I18
aI18
aI18
aI18
aI18
aI18
aI18
aI18
aI18
aI18
aI18
aI18
aI18
aI18
aI18
aI18
aI18
aI18
aI18
aI18
aI18
aI18
aI18
aI18
aI18
aI18
aI18
aI18
aI18
aI18
aI18
aI18
aI18
aI18
asg27
Nsg28
(lp4890
I88
aI107
aI230
aI242
aI285
aI308
aI387
aI509
aI674
aI689
aI732
aI751
aI916
aI1153
aI1180
aI1183
aI1272
aI1346
aI1502
aI1512
aI1516
aI1534
aI1692
aI1946
aI2092
aI2139
aI2167
aI2249
aI2301
aI2320
aI2557
aI2673
aI2895
aI2910
asg30
Nsg31
Nsbsg10
(lp4891
g12
(g16
S'}\x95\xfeb\xf75!\xc0'
p4892
tp4893
Rp4894
ag12
(g16
S'\x16\x9ez-y\x98D@'
p4895
tp4896
Rp4897
asg25
Nsg27
F1.2344393544574412
sg28
Nsg30
(inode
Node
p4898
(dp4899
g5
(inode
Node
p4900
(dp4901
g5
Nsg10
(lp4902
g12
(g16
S'82\x8f\xfc\xc1 !\xc0'
p4903
tp4904
Rp4905
ag12
(g16
S'\x82\x01\x84\x0f%\xa0D@'
p4906
tp4907
Rp4908
asg25
(lp4909
I19
aI19
aI19
asg27
Nsg28
(lp4910
I3
aI1143
aI2666
asg30
Nsg31
Nsbsg10
(lp4911
g12
(g16
S'\xec\xd8>`l7!\xc0'
p4912
tp4913
Rp4914
ag12
(g16
S'\xa9\xfa\xf6\xbeG\x98D@'
p4915
tp4916
Rp4917
asg25
Nsg27
F1.0003792356006007
sg28
Nsg30
(inode
Node
p4918
(dp4919
g5
(inode
Node
p4920
(dp4921
g5
Nsg10
(lp4922
g12
(g16
S'e1\xb1\xf9\xb8H!\xc0'
p4923
tp4924
Rp4925
ag12
(g16
S';\xa9/K\xfb\x96D@'
p4926
tp4927
Rp4928
asg25
(lp4929
I20
aI20
aI20
aI20
aI20
aI20
aI20
aI20
aI20
aI20
aI20
aI20
aI20
aI20
aI20
aI20
aI20
aI20
aI20
aI20
aI20
aI20
aI20
aI20
asg27
Nsg28
(lp4930
I66
aI89
aI92
aI197
aI328
aI508
aI645
aI712
aI845
aI1093
aI1166
aI1430
aI1473
aI1661
aI1702
aI1871
aI2024
aI2030
aI2058
aI2082
aI2477
aI2916
aI2979
aI3015
asg30
Nsg31
Nsbsg10
(lp4931
g12
(g16
S'\x9c3\xa2\xb474!\xc0'
p4932
tp4933
Rp4934
ag12
(g16
S':\xd3oP\xe0\x97D@'
p4935
tp4936
Rp4937
asg25
Nsg27
F1.0649203156402574
sg28
Nsg30
(inode
Node
p4938
(dp4939
g5
(inode
Node
p4940
(dp4941
g5
Nsg10
(lp4942
g12
(g16
S'p\xaa\x96\xbfn7!\xc0'
p4943
tp4944
Rp4945
ag12
(g16
S'\x82\xd6:\xdb\x84\x96D@'
p4946
tp4947
Rp4948
asg25
(lp4949
I21
aI21
aI21
aI21
aI21
aI21
aI21
aI21
aI21
aI21
aI21
asg27
Nsg28
(lp4950
I15
aI54
aI819
aI1695
aI1874
aI2045
aI2268
aI2457
aI2509
aI2810
aI2920
asg30
Nsg31
Nsbsg10
(lp4951
g12
(g16
S'1\x85\xcbGk3!\xc0'
p4952
tp4953
Rp4954
ag12
(g16
S'\xa9\xa9-\xf4\xcc\x97D@'
p4955
tp4956
Rp4957
asg25
Nsg27
F1.0707456488729237
sg28
Nsg30
(inode
Node
p4958
(dp4959
g5
(inode
Node
p4960
(dp4961
g5
Nsg10
(lp4962
g12
(g16
S'_\xf0\xc4\x07\xd1E!\xc0'
p4963
tp4964
Rp4965
ag12
(g16
S'\xb2\x1b\x11\xe7<\x98D@'
p4966
tp4967
Rp4968
asg25
(lp4969
I22
aI22
aI22
aI22
aI22
asg27
Nsg28
(lp4970
I620
aI856
aI1068
aI1903
aI2771
asg30
Nsg31
Nsbsg10
(lp4971
g12
(g16
S'\xf2\x0e\x11?\x8d4!\xc0'
p4972
tp4973
Rp4974
ag12
(g16
S'\x99\xd3?\xa2\x1a\x97D@'
p4975
tp4976
Rp4977
asg25
Nsg27
F1.1977356905717351
sg28
Nsg30
(inode
Node
p4978
(dp4979
g5
(inode
Node
p4980
(dp4981
g5
Nsg10
(lp4982
g12
(g16
S'\xc8@\x9e]\xbeC!\xc0'
p4983
tp4984
Rp4985
ag12
(g16
S'\xa2y\x00\x8b|\x99D@'
p4986
tp4987
Rp4988
asg25
(lp4989
I23
aI23
aI23
aI23
asg27
Nsg28
(lp4990
I12
aI695
aI1138
aI2321
asg30
Nsg31
Nsbsg10
(lp4991
g12
(g16
S'1"v\xe9\xea2!\xc0'
p4992
tp4993
Rp4994
ag12
(g16
S'\xb7\x81\\q\x95\x98D@'
p4995
tp4996
Rp4997
asg25
Nsg27
F1.4447381285101895
sg28
Nsg30
(inode
Node
p4998
(dp4999
g5
(inode
Node
p5000
(dp5001
g5
Nsg10
(lp5002
g12
(g16
S'\xf9.\xa5.\x19W!\xc0'
p5003
tp5004
Rp5005
ag12
(g16
S'\xc5\x1do\xf2[\x9eD@'
p5006
tp5007
Rp5008
asg25
(lp5009
I24
asg27
Nsg28
(lp5010
I353
asg30
Nsg31
Nsbsg10
(lp5011
g12
(g16
S'M?\x97_\xbc2!\xc0'
p5012
tp5013
Rp5014
ag12
(g16
S'\x01\x04HJ\x92\x98D@'
p5015
tp5016
Rp5017
asg25
Nsg27
F1.5367076758984035
sg28
Nsg30
(inode
Node
p5018
(dp5019
g5
(inode
Node
p5020
(dp5021
g5
Nsg10
(lp5022
g12
(g16
S'\xa4G\x7f\xa6\xc8B!\xc0'
p5023
tp5024
Rp5025
ag12
(g16
S'Uyy\xa4\xa2\x96D@'
p5026
tp5027
Rp5028
asg25
(lp5029
I25
aI25
aI25
aI25
aI25
aI25
aI25
aI25
aI25
aI25
aI25
asg27
Nsg28
(lp5030
I166
aI202
aI587
aI772
aI1033
aI1252
aI1465
aI1752
aI2006
aI2683
aI2790
asg30
Nsg31
Nsbsg10
(lp5031
g12
(g16
S'\xc31\xf6\xb8\xa92!\xc0'
p5032
tp5033
Rp5034
ag12
(g16
S'\xaeZ\xe8`\xa8\x98D@'
p5035
tp5036
Rp5037
asg25
Nsg27
F1.2615105700260636
sg28
Nsg30
(inode
Node
p5038
(dp5039
g5
(inode
Node
p5040
(dp5041
g5
Nsg10
(lp5042
g12
(g16
S'P=-\x9a)@!\xc0'
p5043
tp5044
Rp5045
ag12
(g16
S'\xa5\xb5\x0e\xb3<\x96D@'
p5046
tp5047
Rp5048
asg25
(lp5049
I26
aI26
aI26
aI26
aI26
asg27
Nsg28
(lp5050
I887
aI914
aI1256
aI1345
aI1401
asg30
Nsg31
Nsbsg10
(lp5051
g12
(g16
S'\x83\xc9\xf7m\xd31!\xc0'
p5052
tp5053
Rp5054
ag12
(g16
S'\x02\x8fP~\xbe\x98D@'
p5055
tp5056
Rp5057
asg25
Nsg27
F1.589563739183172
sg28
Nsg30
(inode
Node
p5058
(dp5059
g5
(inode
Node
p5060
(dp5061
g5
Nsg10
(lp5062
g12
(g16
S'\xf0\x07M\\\xd8D!\xc0'
p5063
tp5064
Rp5065
ag12
(g16
S'v\x97\x1f\x13\x84\x92D@'
p5066
tp5067
Rp5068
asg25
(lp5069
I27
aI27
aI27
aI27
aI27
asg27
Nsg28
(lp5070
I130
aI813
aI1238
aI1407
aI2443
asg30
Nsg31
Nsbsg10
(lp5071
g12
(g16
S'\x96\x1bj\xb6P4!\xc0'
p5072
tp5073
Rp5074
ag12
(g16
S'\xf8\rv`c\x98D@'
p5075
tp5076
Rp5077
asg25
Nsg27
F1.0206314133518624
sg28
Nsg30
(inode
Node
p5078
(dp5079
g5
(inode
Node
p5080
(dp5081
g5
Nsg10
(lp5082
g12
(g16
S'\x14\x97\xe3\x15\x88V!\xc0'
p5083
tp5084
Rp5085
ag12
(g16
S"\x99\xf5b('\x9eD@"
p5086
tp5087
Rp5088
asg25
(lp5089
I28
asg27
Nsg28
(lp5090
I1067
asg30
Nsg31
Nsbsg10
(lp5091
g12
(g16
S'Aa\xbd\xfbi3!\xc0'
p5092
tp5093
Rp5094
ag12
(g16
S'JM\x8cNf\x98D@'
p5095
tp5096
Rp5097
asg25
Nsg27
F1.1344548663094638
sg28
Nsg30
(inode
Node
p5098
(dp5099
g5
(inode
Node
p5100
(dp5101
g5
Nsg10
(lp5102
g12
(g16
S'{\x8e\x8b)\xd64!\xc0'
p5103
tp5104
Rp5105
ag12
(g16
S'\x01\x859\xbf$\x9cD@'
p5106
tp5107
Rp5108
asg25
(lp5109
I29
aI29
aI29
aI29
aI29
aI29
aI29
asg27
Nsg28
(lp5110
I188
aI917
aI1426
aI1454
aI1464
aI1628
aI1995
asg30
Nsg31
Nsbsg10
(lp5111
g12
(g16
S'\xb3\xe38\x91I3!\xc0'
p5112
tp5113
Rp5114
ag12
(g16
S'b;\xc4\xb9#\x98D@'
p5115
tp5116
Rp5117
asg25
Nsg27
F1.006534412198139
sg28
Nsg30
(inode
Node
p5118
(dp5119
g5
(inode
Node
p5120
(dp5121
g5
Nsg10
(lp5122
g12
(g16
S'\x1a1\xb3\xcfcD!\xc0'
p5123
tp5124
Rp5125
ag12
(g16
S'\x94\xbf{G\x8d\x99D@'
p5126
tp5127
Rp5128
asg25
(lp5129
I30
asg27
Nsg28
(lp5130
I1765
asg30
Nsg31
Nsbsg10
(lp5131
g12
(g16
S'A \x99t\xf72!\xc0'
p5132
tp5133
Rp5134
ag12
(g16
S'l\x18\xa1\xa2\x03\x98D@'
p5135
tp5136
Rp5137
asg25
Nsg27
F1.4022418786004973
sg28
Nsg30
(inode
Node
p5138
(dp5139
g5
(inode
Node
p5140
(dp5141
g5
Nsg10
(lp5142
g12
(g16
S'2\xbe\xd4t\xe2G!\xc0'
p5143
tp5144
Rp5145
ag12
(g16
S'34\xf9\xc1T\x9aD@'
p5146
tp5147
Rp5148
asg25
(lp5149
I31
aI31
aI31
aI31
aI31
asg27
Nsg28
(lp5150
I597
aI1125
aI1987
aI2684
aI2902
asg30
Nsg31
Nsbsg10
(lp5151
g12
(g16
S'5\xf5P\x04/2!\xc0'
p5152
tp5153
Rp5154
ag12
(g16
S'\xbeu\xe4n:\x98D@'
p5155
tp5156
Rp5157
asg25
Nsg27
F1.0475771813385564
sg28
Nsg30
(inode
Node
p5158
(dp5159
g5
(inode
Node
p5160
(dp5161
g5
Nsg10
(lp5162
g12
(g16
S'\xd2\xc8\xe7\x15O%!\xc0'
p5163
tp5164
Rp5165
ag12
(g16
S'\x88\xa0j\xf4j\x97D@'
p5166
tp5167
Rp5168
asg25
(lp5169
I32
aI32
asg27
Nsg28
(lp5170
I112
aI527
asg30
Nsg31
Nsbsg10
(lp5171
g12
(g16
S'\x14\xe4z\xee\x173!\xc0'
p5172
tp5173
Rp5174
ag12
(g16
S'\x81\xe0\x04\xb9^\x98D@'
p5175
tp5176
Rp5177
asg25
Nsg27
F1.2617677561180332
sg28
Nsg30
(inode
Node
p5178
(dp5179
g5
(inode
Node
p5180
(dp5181
g5
Nsg10
(lp5182
g12
(g16
S'\xf7TN{J6!\xc0'
p5183
tp5184
Rp5185
ag12
(g16
S'\xbf\xa3\xc6\x84\x98\x91D@'
p5186
tp5187
Rp5188
asg25
(lp5189
I33
aI33
aI33
asg27
Nsg28
(lp5190
I526
aI1859
aI2427
asg30
Nsg31
Nsbsg10
(lp5191
g12
(g16
S'r\xde\x0c\x07\xd13!\xc0'
p5192
tp5193
Rp5194
ag12
(g16
S'U4\x17:\xb3\x98D@'
p5195
tp5196
Rp5197
asg25
Nsg27
F1.1600695253148026
sg28
Nsg30
(inode
Node
p5198
(dp5199
g5
(inode
Node
p5200
(dp5201
g5
Nsg10
(lp5202
g12
(g16
S'\xd0\x98I\xd4\x0b>!\xc0'
p5203
tp5204
Rp5205
ag12
(g16
S'\xdd\xeb\xa4\xbe,\x93D@'
p5206
tp5207
Rp5208
asg25
(lp5209
I34
aI34
aI34
asg27
Nsg28
(lp5210
I1142
aI1655
aI2473
asg30
Nsg31
Nsbsg10
(lp5211
g12
(g16
S'\x8b\xbb\x95\x00}6!\xc0'
p5212
tp5213
Rp5214
ag12
(g16
S'\xaf+a\x1b}\x98D@'
p5215
tp5216
Rp5217
asg25
Nsg27
F1.117198148738492
sg28
Nsg30
(inode
Node
p5218
(dp5219
g5
(inode
Node
p5220
(dp5221
g5
Nsg10
(lp5222
g12
(g16
S'|\x9d\xd4\x97\xa5U!\xc0'
p5223
tp5224
Rp5225
ag12
(g16
S'\xdeU\x0f\x98\x87\x9eD@'
p5226
tp5227
Rp5228
asg25
(lp5229
I35
asg27
Nsg28
(lp5230
I1458
asg30
Nsg31
Nsbsg10
(lp5231
g12
(g16
S'\x8a\x9eJ\xbc\xf25!\xc0'
p5232
tp5233
Rp5234
ag12
(g16
S'\xb8\xadg\xe7x\x98D@'
p5235
tp5236
Rp5237
asg25
Nsg27
F1.250701255309064
sg28
Nsg30
(inode
Node
p5238
(dp5239
g5
(inode
Node
p5240
(dp5241
g5
Nsg10
(lp5242
g12
(g16
S'\xe8G\xc3)s\x1f!\xc0'
p5243
tp5244
Rp5245
ag12
(g16
S'z\xe3\xa40\xefcD@'
p5246
tp5247
Rp5248
asg25
(lp5249
I36
aI36
asg27
Nsg28
(lp5250
I1606
aI1656
asg30
Nsg31
Nsbsg10
(lp5251
g12
(g16
S'\x99k\x82Ue;!\xc0'
p5252
tp5253
Rp5254
ag12
(g16
S'\x19T|%\xc3\x97D@'
p5255
tp5256
Rp5257
asg25
Nsg27
F1.5350098828419254
sg28
Nsg30
(inode
Node
p5258
(dp5259
g5
(inode
Node
p5260
(dp5261
g5
Nsg10
(lp5262
g12
(g16
S'\x91\xd1\x01I\xd8W!\xc0'
p5263
tp5264
Rp5265
ag12
(g16
S"\x85\xed'c|\x9eD@"
p5266
tp5267
Rp5268
asg25
(lp5269
I37
asg27
Nsg28
(lp5270
I1046
asg30
Nsg31
Nsbsg10
(lp5271
g12
(g16
S'\xc9\x01L$\xfd;!\xc0'
p5272
tp5273
Rp5274
ag12
(g16
S'\x88k}\xea\xbc\x98D@'
p5275
tp5276
Rp5277
asg25
Nsg27
F1.4035457040203294
sg28
Nsg30
(inode
Node
p5278
(dp5279
g5
(inode
Node
p5280
(dp5281
g5
Nsg10
(lp5282
g12
(g16
S'\x13\xd9\x07Y\x165!\xc0'
p5283
tp5284
Rp5285
ag12
(g16
S'\xd4\\n0\xd4\x9aD@'
p5286
tp5287
Rp5288
asg25
(lp5289
I38
aI38
aI38
aI38
aI38
aI38
aI38
aI38
asg27
Nsg28
(lp5290
I180
aI229
aI279
aI427
aI655
aI775
aI1713
aI2483
asg30
Nsg31
Nsbsg10
(lp5291
g12
(g16
S'k\x04z\x8b[;!\xc0'
p5292
tp5293
Rp5294
ag12
(g16
S'\x19ft\x84\x19\x98D@'
p5295
tp5296
Rp5297
asg25
Nsg27
F1.1785961040969448
sg28
Nsg30
(inode
Node
p5298
(dp5299
g5
(inode
Node
p5300
(dp5301
g5
Nsg10
(lp5302
g12
(g16
S'`\x01L\x198H!\xc0'
p5303
tp5304
Rp5305
ag12
(g16
S'\x89\xea\xad\x81\xad\x94D@'
p5306
tp5307
Rp5308
asg25
(lp5309
I39
asg27
Nsg28
(lp5310
I2668
asg30
Nsg31
Nsbsg10
(lp5311
g12
(g16
S'\xd3\t\xeb9r;!\xc0'
p5312
tp5313
Rp5314
ag12
(g16
S'\xd7\t\xb5\xe7\x02\x98D@'
p5315
tp5316
Rp5317
asg25
Nsg27
F1.733286026859257
sg28
Nsg30
(inode
Node
p5318
(dp5319
g5
(inode
Node
p5320
(dp5321
g5
Nsg10
(lp5322
g12
(g16
S'\xcbe\xa3s~b!\xc0'
p5323
tp5324
Rp5325
ag12
(g16
S'\x0c\xce\xe0\xef\x17\x97D@'
p5326
tp5327
Rp5328
asg25
(lp5329
I40
asg27
Nsg28
(lp5330
I2582
asg30
Nsg31
Nsbsg10
(lp5331
g12
(g16
S'7;ew%;!\xc0'
p5332
tp5333
Rp5334
ag12
(g16
S'DRCZ\xaa\x98D@'
p5335
tp5336
Rp5337
asg25
Nsg27
F1.1346831979764733
sg28
Nsg30
(inode
Node
p5338
(dp5339
g5
(inode
Node
p5340
(dp5341
g5
Nsg10
(lp5342
g12
(g16
S'\x0b\xd3\xf7\x1a\x82#\x1f\xc0'
p5343
tp5344
Rp5345
ag12
(g16
S'\xd7kzPP\x94D@'
p5346
tp5347
Rp5348
asg25
(lp5349
I41
asg27
Nsg28
(lp5350
I1034
asg30
Nsg31
Nsbsg10
(lp5351
g12
(g16
S'P\x18\x94i\xb4:!\xc0'
p5352
tp5353
Rp5354
ag12
(g16
S'\xfa1Ah\xa8\x98D@'
p5355
tp5356
Rp5357
asg25
Nsg27
F1.69205136364333
sg28
Nsg30
(inode
Node
p5358
(dp5359
g5
(inode
Node
p5360
(dp5361
g5
Nsg10
(lp5362
g12
(g16
S"H\xa3\x02'\xdb8!\xc0"
p5363
tp5364
Rp5365
ag12
(g16
S'M-[\xeb\x8b\x92D@'
p5366
tp5367
Rp5368
asg25
(lp5369
I42
asg27
Nsg28
(lp5370
I2835
asg30
Nsg31
Nsbsg10
(lp5371
g12
(g16
S'\x06\x86\x89\x9d\xb5>!\xc0'
p5372
tp5373
Rp5374
ag12
(g16
S'\xb1{\xfd\xf8\x91\x98D@'
p5375
tp5376
Rp5377
asg25
Nsg27
F1.8644188082254465
sg28
Nsg30
(inode
Node
p5378
(dp5379
g5
(inode
Node
p5380
(dp5381
g5
Nsg10
(lp5382
g12
(g16
S')=\xd3K\x8c-!\xc0'
p5383
tp5384
Rp5385
ag12
(g16
S'H\xf9I\xb5O\x95D@'
p5386
tp5387
Rp5388
asg25
(lp5389
I43
asg27
Nsg28
(lp5390
I1279
asg30
Nsg31
Nsbsg10
(lp5391
g12
(g16
S'J@\xf5\xb8\x18<!\xc0'
p5392
tp5393
Rp5394
ag12
(g16
S'\xd6\xfa\xcb\x97\xc0\x98D@'
p5395
tp5396
Rp5397
asg25
Nsg27
F1.7875381659966594
sg28
Nsg30
(inode
Node
p5398
(dp5399
g5
(inode
Node
p5400
(dp5401
g5
Nsg10
(lp5402
g12
(g16
S'Ii6\x8f\xc38!\xc0'
p5403
tp5404
Rp5405
ag12
(g16
S'\x14\xd1\xaf\xad\x9f\x92D@'
p5406
tp5407
Rp5408
asg25
(lp5409
I44
asg27
Nsg28
(lp5410
I69
asg30
Nsg31
Nsbsg10
(lp5411
g12
(g16
S'eL\xa8}\xc6;!\xc0'
p5412
tp5413
Rp5414
ag12
(g16
S'\xee\x14\xbc2\xb9\x98D@'
p5415
tp5416
Rp5417
asg25
Nsg27
F1.9490581884576497
sg28
Nsg30
(inode
Node
p5418
(dp5419
g5
(inode
Node
p5420
(dp5421
g5
Nsg10
(lp5422
g12
(g16
S'\x90\x19\xa8\x8c\x7fC!\xc0'
p5423
tp5424
Rp5425
ag12
(g16
S'\n\xdd%qV\x98D@'
p5426
tp5427
Rp5428
asg25
(lp5429
I45
aI45
asg27
Nsg28
(lp5430
I72
aI2251
asg30
Nsg31
Nsbsg10
(lp5431
g12
(g16
S'\xe6\x8d\xba\xeb\xcf;!\xc0'
p5432
tp5433
Rp5434
ag12
(g16
S'\xb5\x8c\t\x9b\xd5\x98D@'
p5435
tp5436
Rp5437
asg25
Nsg27
F1.324887444353562
sg28
Nsg30
(inode
Node
p5438
(dp5439
g5
(inode
Node
p5440
(dp5441
g5
Nsg10
(lp5442
g12
(g16
S'\xa2\xb2aMe\xa1 \xc0'
p5443
tp5444
Rp5445
ag12
(g16
S'*oG8-\x94D@'
p5446
tp5447
Rp5448
asg25
(lp5449
I46
asg27
Nsg28
(lp5450
I1942
asg30
Nsg31
Nsbsg10
(lp5451
g12
(g16
S'\xfb\xfclt_<!\xc0'
p5452
tp5453
Rp5454
ag12
(g16
S'\xfc\x95\xee\xd0\xac\x98D@'
p5455
tp5456
Rp5457
asg25
Nsg27
F1.2757340833297501
sg28
Nsg30
(inode
Node
p5458
(dp5459
g5
(inode
Node
p5460
(dp5461
g5
Nsg10
(lp5462
g12
(g16
S'\xee\x94\x0e\xd6\xffC!\xc0'
p5463
tp5464
Rp5465
ag12
(g16
S'|\xb6\x0e\x0e\xf6\x94D@'
p5466
tp5467
Rp5468
asg25
(lp5469
I47
aI47
aI47
aI47
asg27
Nsg28
(lp5470
I431
aI1605
aI1772
aI2485
asg30
Nsg31
Nsbsg10
(lp5471
g12
(g16
S';c\xd0\xfca<!\xc0'
p5472
tp5473
Rp5474
ag12
(g16
S'\xf5\xbf\x05\xbf4\x98D@'
p5475
tp5476
Rp5477
asg25
Nsg27
F1.1590367687520662
sg28
Nsg30
(inode
Node
p5478
(dp5479
g5
(inode
Node
p5480
(dp5481
g5
Nsg10
(lp5482
g12
(g16
S'\x87\x18\xafyUO!\xc0'
p5483
tp5484
Rp5485
ag12
(g16
S'\x98\xc6/\xbc\x92\x99D@'
p5486
tp5487
Rp5488
asg25
(lp5489
I48
aI48
asg27
Nsg28
(lp5490
I396
aI1598
asg30
Nsg31
Nsbsg10
(lp5491
g12
(g16
S'\x0f4\x9a\xaf);!\xc0'
p5492
tp5493
Rp5494
ag12
(g16
S'\rO\xa6\xe3F\x98D@'
p5495
tp5496
Rp5497
asg25
Nsg27
F1.5015247253928818
sg28
Nsg30
(inode
Node
p5498
(dp5499
g5
(inode
Node
p5500
(dp5501
g5
Nsg10
(lp5502
g12
(g16
S"\xe1'\x0e\xa0\xdfG!\xc0"
p5503
tp5504
Rp5505
ag12
(g16
S'\xaa+\x9f\xe5y\x94D@'
p5506
tp5507
Rp5508
asg25
(lp5509
I49
asg27
Nsg28
(lp5510
I850
asg30
Nsg31
Nsbsg10
(lp5511
g12
(g16
S'LG5B\x86;!\xc0'
p5512
tp5513
Rp5514
ag12
(g16
S'\xb8\x06\x86!\xd5\x97D@'
p5515
tp5516
Rp5517
asg25
Nsg27
F1.0139054151247295
sg28
Nsg30
(inode
Node
p5518
(dp5519
g5
(inode
Node
p5520
(dp5521
g5
Nsg10
(lp5522
g12
(g16
S'\xe1\t\xbd\xfe$V!\xc0'
p5523
tp5524
Rp5525
ag12
(g16
S'j\xa3:\x1d\xc8\x90D@'
p5526
tp5527
Rp5528
asg25
(lp5529
I50
asg27
Nsg28
(lp5530
I1409
asg30
Nsg31
Nsbsg10
(lp5531
g12
(g16
S'\xd7\xb3\xb35\x9d<!\xc0'
p5532
tp5533
Rp5534
ag12
(g16
S"'\xbb\x99\xd1\x8f\x97D@"
p5535
tp5536
Rp5537
asg25
Nsg27
F1.726802584781239
sg28
Nsg30
(inode
Node
p5538
(dp5539
g5
(inode
Node
p5540
(dp5541
g5
Nsg10
(lp5542
g12
(g16
S'\xbb}V\x99)\xb5 \xc0'
p5543
tp5544
Rp5545
ag12
(g16
S'O\xc7c\x06*\x97D@'
p5546
tp5547
Rp5548
asg25
(lp5549
I51
aI51
aI51
asg27
Nsg28
(lp5550
I1187
aI1788
aI2262
asg30
Nsg31
Nsbsg10
(lp5551
g12
(g16
S'\x067\x02I\x84<!\xc0'
p5552
tp5553
Rp5554
ag12
(g16
S'&[+A\x96\x97D@'
p5555
tp5556
Rp5557
asg25
Nsg27
F1.1089980074558956
sg28
Nsg30
(inode
Node
p5558
(dp5559
g5
(inode
Node
p5560
(dp5561
g5
Nsg10
(lp5562
g12
(g16
S'X\xe3l:\x020!\xc0'
p5563
tp5564
Rp5565
ag12
(g16
S'\x1f\x84\x80|\t\x97D@'
p5566
tp5567
Rp5568
asg25
(lp5569
I52
asg27
Nsg28
(lp5570
I142
asg30
Nsg31
Nsbsg10
(lp5571
g12
(g16
S'\xd3\xce\x84H\xfe?!\xc0'
p5572
tp5573
Rp5574
ag12
(g16
S'+\xf3D\x91x\x97D@'
p5575
tp5576
Rp5577
asg25
Nsg27
F1.3234151077329084
sg28
Nsg30
(inode
Node
p5578
(dp5579
g5
(inode
Node
p5580
(dp5581
g5
Nsg10
(lp5582
g12
(g16
S'\xc0\xe8\xf2\xe6p=!\xc0'
p5583
tp5584
Rp5585
ag12
(g16
S'$\xb7&\xdd\x96\x90D@'
p5586
tp5587
Rp5588
asg25
(lp5589
I53
asg27
Nsg28
(lp5590
I122
asg30
Nsg31
Nsbsg10
(lp5591
g12
(g16
S'a\xa3\xfe7-<!\xc0'
p5592
tp5593
Rp5594
ag12
(g16
S'\xcd\x8f\xa4Sd\x97D@'
p5595
tp5596
Rp5597
asg25
Nsg27
F1.674328420591784
sg28
Nsg30
(inode
Node
p5598
(dp5599
g5
(inode
Node
p5600
(dp5601
g5
Nsg10
(lp5602
g12
(g16
S'\x94\xc2\xbc\xc7\x99V!\xc0'
p5603
tp5604
Rp5605
ag12
(g16
S'\xff\\4d<\x9eD@'
p5606
tp5607
Rp5608
asg25
(lp5609
I54
asg27
Nsg28
(lp5610
I48
asg30
Nsg31
Nsbsg10
(lp5611
g12
(g16
S'5!\xb3\xa7\xfc<!\xc0'
p5612
tp5613
Rp5614
ag12
(g16
S'U6\x9aG\xef\x97D@'
p5615
tp5616
Rp5617
asg25
Nsg27
F1.3138419075602101
sg28
Nsg30
(inode
Node
p5618
(dp5619
g5
(inode
Node
p5620
(dp5621
g5
Nsg10
(lp5622
g12
(g16
S'\x87\x85\xfe\xad\x08R!\xc0'
p5623
tp5624
Rp5625
ag12
(g16
S'\xc7,$\tk\x9aD@'
p5626
tp5627
Rp5628
asg25
(lp5629
I55
aI55
aI55
aI55
aI55
aI55
aI55
aI55
aI55
aI55
aI55
aI55
aI55
aI55
aI55
aI55
aI55
asg27
Nsg28
(lp5630
I22
aI488
aI522
aI543
aI571
aI611
aI781
aI785
aI799
aI1106
aI1587
aI1596
aI1760
aI1891
aI2458
aI2522
aI2602
asg30
Nsg31
Nsbsg10
(lp5631
g12
(g16
S'\x9f*\x9c\x0c\xad<!\xc0'
p5632
tp5633
Rp5634
ag12
(g16
S'\xc3\x82\xb3w\xd8\x97D@'
p5635
tp5636
Rp5637
asg25
Nsg27
F0.4488000448682188
sg28
Nsg30
(inode
Node
p5638
(dp5639
g5
(inode
Node
p5640
(dp5641
g5
Nsg10
(lp5642
g12
(g16
S'\xf6\x8a]\x91NS!\xc0'
p5643
tp5644
Rp5645
ag12
(g16
S'\x9af\x15\x91\xbc\x9aD@'
p5646
tp5647
Rp5648
asg25
(lp5649
I56
aI56
aI56
aI56
aI56
asg27
Nsg28
(lp5650
I730
aI1208
aI1818
aI2574
aI2635
asg30
Nsg31
Nsbsg10
(lp5651
g12
(g16
S'Q\x9c\xea\xe0\x9e8!\xc0'
p5652
tp5653
Rp5654
ag12
(g16
S'\x0b\xe8\\7m\x97D@'
p5655
tp5656
Rp5657
asg25
Nsg27
F0.6489082796017648
sg28
Nsg30
(inode
Node
p5658
(dp5659
g5
(inode
Node
p5660
(dp5661
g5
Nsg10
(lp5662
g12
(g16
S'\x8bQ\xd7\xda\xfbL!\xc0'
p5663
tp5664
Rp5665
ag12
(g16
S'\x946U\xf7\xc8\x92D@'
p5666
tp5667
Rp5668
asg25
(lp5669
I57
aI57
asg27
Nsg28
(lp5670
I400
aI461
asg30
Nsg31
Nsbsg10
(lp5671
g12
(g16
S'4\xf2.\xeb\x87=!\xc0'
p5672
tp5673
Rp5674
ag12
(g16
S'\xda\xa4\x83@Z\x97D@'
p5675
tp5676
Rp5677
asg25
Nsg27
F0.5927412299008525
sg28
Nsg30
(inode
Node
p5678
(dp5679
g5
(inode
Node
p5680
(dp5681
g5
Nsg10
(lp5682
g12
(g16
S'\xc2\x89\xe8\xd7\xd6C!\xc0'
p5683
tp5684
Rp5685
ag12
(g16
S'\xe4\r0\xf3\x1d\x99D@'
p5686
tp5687
Rp5688
asg25
(lp5689
I58
aI58
asg27
Nsg28
(lp5690
I905
aI2732
asg30
Nsg31
Nsbsg10
(lp5691
g12
(g16
S'\x9c\x9be\x9bu=!\xc0'
p5692
tp5693
Rp5694
ag12
(g16
S'U\xca\x92\x89\xb3\x97D@'
p5695
tp5696
Rp5697
asg25
Nsg27
F0.5321263324841186
sg28
Nsg30
(inode
Node
p5698
(dp5699
g5
(inode
Node
p5700
(dp5701
g5
Nsg10
(lp5702
g12
(g16
S'\x9b\x02\x99\x9dEo!\xc0'
p5703
tp5704
Rp5705
ag12
(g16
S'@l\xe9\xd1T\xa1D@'
p5706
tp5707
Rp5708
asg25
(lp5709
I59
asg27
Nsg28
(lp5710
I64
asg30
Nsg31
Nsbsg10
(lp5711
g12
(g16
S'\x01\x96\xd1\x17\xa4=!\xc0'
p5712
tp5713
Rp5714
ag12
(g16
S'\xb7\xabj\\\x12\x98D@'
p5715
tp5716
Rp5717
asg25
Nsg27
F0.604574331832427
sg28
Nsg30
(inode
Node
p5718
(dp5719
g5
(inode
Node
p5720
(dp5721
g5
Nsg10
(lp5722
g12
(g16
S'B\\9{g<!\xc0'
p5723
tp5724
Rp5725
ag12
(g16
S'\x9b\xacQ\x0f\xd1\x9cD@'
p5726
tp5727
Rp5728
asg25
(lp5729
I60
asg27
Nsg28
(lp5730
I2541
asg30
Nsg31
Nsbsg10
(lp5731
g12
(g16
S'=Ut\xda\x89<!\xc0'
p5732
tp5733
Rp5734
ag12
(g16
S'\xf6;\x14\x05:\x98D@'
p5735
tp5736
Rp5737
asg25
Nsg27
F0.6700324104887045
sg28
Nsg30
(inode
Node
p5738
(dp5739
g5
(inode
Node
p5740
(dp5741
g5
Nsg10
(lp5742
g12
(g16
S'L8\xf4\x16\x0f7!\xc0'
p5743
tp5744
Rp5745
ag12
(g16
S'\xc2\xdc\xee\xe5>\x95D@'
p5746
tp5747
Rp5748
asg25
(lp5749
I61
asg27
Nsg28
(lp5750
I2279
asg30
Nsg31
Nsbsg10
(lp5751
g12
(g16
S'ZB>\xe8\xd9<!\xc0'
p5752
tp5753
Rp5754
ag12
(g16
S';\x99\x8c\xa75\x98D@'
p5755
tp5756
Rp5757
asg25
Nsg27
F0.6263426090332481
sg28
Nsg30
(inode
Node
p5758
(dp5759
g5
(inode
Node
p5760
(dp5761
g5
Nsg10
(lp5762
g12
(g16
S'\x13\xb6\x9f\x8c\xf19!\xc0'
p5763
tp5764
Rp5765
ag12
(g16
S'\xbb\x0c\xff\xe9\x06\x92D@'
p5766
tp5767
Rp5768
asg25
(lp5769
I62
asg27
Nsg28
(lp5770
I1340
asg30
Nsg31
Nsbsg10
(lp5771
g12
(g16
S'K\xd3,\xad\x1d=!\xc0'
p5772
tp5773
Rp5774
ag12
(g16
S'\x1a\x14\xcd\x03X\x98D@'
p5775
tp5776
Rp5777
asg25
Nsg27
F0.6478147109317041
sg28
Nsg30
(inode
Node
p5778
(dp5779
g5
(inode
Node
p5780
(dp5781
g5
Nsg10
(lp5782
g12
(g16
S'L8\xf4\x16\x0f7!\xc0'
p5783
tp5784
Rp5785
ag12
(g16
S'\xc2\xdc\xee\xe5>\x95D@'
p5786
tp5787
Rp5788
asg25
(lp5789
I63
asg27
Nsg28
(lp5790
I2385
asg30
Nsg31
Nsbsg10
(lp5791
g12
(g16
S'\xbd \x16I\xc4<!\xc0'
p5792
tp5793
Rp5794
ag12
(g16
S'\x1d\xcd\x91\x95_\x98D@'
p5795
tp5796
Rp5797
asg25
Nsg27
F0.667490442750641
sg28
Nsg30
(inode
Node
p5798
(dp5799
g5
(inode
Node
p5800
(dp5801
g5
Nsg10
(lp5802
g12
(g16
S'zn\xa1+\x11H!\xc0'
p5803
tp5804
Rp5805
ag12
(g16
S'\xe3\xc1\x16\xbb}\x94D@'
p5806
tp5807
Rp5808
asg25
(lp5809
I64
asg27
Nsg28
(lp5810
I773
asg30
Nsg31
Nsbsg10
(lp5811
g12
(g16
S'1Bx\xb4q<!\xc0'
p5812
tp5813
Rp5814
ag12
(g16
S'\x03\xb2\xd7\xbb?\x98D@'
p5815
tp5816
Rp5817
asg25
Nsg27
F0.6272313424129917
sg28
Nsg30
(inode
Node
p5818
(dp5819
g5
(inode
Node
p5820
(dp5821
g5
Nsg10
(lp5822
g12
(g16
S'\xd1\x92\xc7\xd3\xf23!\xc0'
p5823
tp5824
Rp5825
ag12
(g16
S'\x9c\x18\x92\x93\x89\x91D@'
p5826
tp5827
Rp5828
asg25
(lp5829
I65
aI65
asg27
Nsg28
(lp5830
I1168
aI1538
asg30
Nsg31
Nsbsg10
(lp5831
g12
(g16
S'\x1f\xaa\xc6\x85\xb0<!\xc0'
p5832
tp5833
Rp5834
ag12
(g16
S'w\xe8\xf9\x16\\\x98D@'
p5835
tp5836
Rp5837
asg25
Nsg27
F0.6662208078566892
sg28
Nsg30
(inode
Node
p5838
(dp5839
g5
(inode
Node
p5840
(dp5841
g5
Nsg10
(lp5842
g12
(g16
S'\xaaA\xe2h\xd8A!\xc0'
p5843
tp5844
Rp5845
ag12
(g16
S'\x92\x9dm$\xbf\x94D@'
p5846
tp5847
Rp5848
asg25
(lp5849
I66
aI66
aI66
aI66
aI66
asg27
Nsg28
(lp5850
I256
aI448
aI859
aI1577
aI2678
asg30
Nsg31
Nsbsg10
(lp5851
g12
(g16
S'\xc3\x87\x93Z@=!\xc0'
p5852
tp5853
Rp5854
ag12
(g16
S";'\x8b\x8c\x95\x98D@"
p5855
tp5856
Rp5857
asg25
Nsg27
F0.6526205409123846
sg28
Nsg30
(inode
Node
p5858
(dp5859
g5
(inode
Node
p5860
(dp5861
g5
Nsg10
(lp5862
g12
(g16
S'zn\xa1+\x11H!\xc0'
p5863
tp5864
Rp5865
ag12
(g16
S'\xe3\xc1\x16\xbb}\x94D@'
p5866
tp5867
Rp5868
asg25
(lp5869
I67
asg27
Nsg28
(lp5870
I871
asg30
Nsg31
Nsbsg10
(lp5871
g12
(g16
S'-\xea\xde\xb6-<!\xc0'
p5872
tp5873
Rp5874
ag12
(g16
S'_.\x01\xad\xcd\x98D@'
p5875
tp5876
Rp5877
asg25
Nsg27
F0.7791249693187159
sg28
Nsg30
(inode
Node
p5878
(dp5879
g5
(inode
Node
p5880
(dp5881
g5
Nsg10
(lp5882
g12
(g16
S'\x07<\xd5\xc6}<!\xc0'
p5883
tp5884
Rp5885
ag12
(g16
S':\xb1\xe2\xaf$\x9aD@'
p5886
tp5887
Rp5888
asg25
(lp5889
I68
aI68
aI68
aI68
aI68
aI68
aI68
aI68
aI68
aI68
asg27
Nsg28
(lp5890
I117
aI482
aI690
aI796
aI952
aI1028
aI1706
aI1742
aI2875
aI2922
asg30
Nsg31
Nsbsg10
(lp5891
g12
(g16
S'\xaft\xea\xdf~<!\xc0'
p5892
tp5893
Rp5894
ag12
(g16
S'\xdc\xc2+;\xe4\x98D@'
p5895
tp5896
Rp5897
asg25
Nsg27
F0.6184136112767943
sg28
Nsg30
(inode
Node
p5898
(dp5899
g5
(inode
Node
p5900
(dp5901
g5
Nsg10
(lp5902
g12
(g16
S',F]k\xef+!\xc0'
p5903
tp5904
Rp5905
ag12
(g16
S'\xe6>9\n\x10\x93D@'
p5906
tp5907
Rp5908
asg25
(lp5909
I69
asg27
Nsg28
(lp5910
I1552
asg30
Nsg31
Nsbsg10
(lp5911
g12
(g16
S'!j\xce8wD!\xc0'
p5912
tp5913
Rp5914
ag12
(g16
S'\x07.\xcc\xca\xaa\x98D@'
p5915
tp5916
Rp5917
asg25
Nsg27
F0.8264804316776727
sg28
Nsg30
(inode
Node
p5918
(dp5919
g5
(inode
Node
p5920
(dp5921
g5
Nsg10
(lp5922
g12
(g16
S'\x86\xc7~\x16K\xf9 \xc0'
p5923
tp5924
Rp5925
ag12
(g16
S'\x91F\x05N\xb6\x97D@'
p5926
tp5927
Rp5928
asg25
(lp5929
I70
asg27
Nsg28
(lp5930
I359
asg30
Nsg31
Nsbsg10
(lp5931
g12
(g16
S'\xde\x8f\xdb/\x9fD!\xc0'
p5932
tp5933
Rp5934
ag12
(g16
S'\x1bi\x96\xf1\xdc\x98D@'
p5935
tp5936
Rp5937
asg25
Nsg27
F0.8165711597547426
sg28
Nsg30
(inode
Node
p5938
(dp5939
g5
(inode
Node
p5940
(dp5941
g5
Nsg10
(lp5942
g12
(g16
S'\xfb<Fy\xe6U!\xc0'
p5943
tp5944
Rp5945
ag12
(g16
S'Y\x8bO\x010\x9eD@'
p5946
tp5947
Rp5948
asg25
(lp5949
I71
asg27
Nsg28
(lp5950
I356
asg30
Nsg31
Nsbsg10
(lp5951
g12
(g16
S'YR7\x9a\xbcE!\xc0'
p5952
tp5953
Rp5954
ag12
(g16
S'\x13\x93(G\xe4\x98D@'
p5955
tp5956
Rp5957
asg25
Nsg27
F0.815187231472293
sg28
Nsg30
(inode
Node
p5958
(dp5959
g5
(inode
Node
p5960
(dp5961
g5
Nsg10
(lp5962
g12
(g16
S'D\x89\x96<\x9eB!\xc0'
p5963
tp5964
Rp5965
ag12
(g16
S'\xae\xf4\xdal\xac\x97D@'
p5966
tp5967
Rp5968
asg25
(lp5969
I72
aI72
asg27
Nsg28
(lp5970
I831
aI1047
asg30
Nsg31
Nsbsg10
(lp5971
g12
(g16
S'\xe8\xc0r\x84\x0cD!\xc0'
p5972
tp5973
Rp5974
ag12
(g16
S'\xc5\xa6\xe6,\xe1\x98D@'
p5975
tp5976
Rp5977
asg25
Nsg27
F0.642112632484034
sg28
Nsg30
(inode
Node
p5978
(dp5979
g5
Nsg10
(lp5980
g12
(g16
S'2\xba\xb4\xc8\x13D!\xc0'
p5981
tp5982
Rp5983
ag12
(g16
S'#\x0e\x02\xc0\xeb\x98D@'
p5984
tp5985
Rp5986
asg25
(lp5987
I73
aI73
aI73
aI73
aI73
aI73
aI73
aI73
aI73
aI73
aI73
aI73
aI73
aI73
aI73
aI73
aI73
aI73
aI73
aI73
aI73
aI73
aI73
aI73
aI73
aI73
aI73
aI73
aI73
aI73
aI73
aI73
aI73
aI73
aI73
aI73
aI73
aI73
aI73
aI73
aI73
aI73
aI73
aI73
aI73
aI73
aI73
aI73
aI73
aI73
asg27
Nsg28
(lp5988
I11
aI98
aI181
aI186
aI246
aI275
aI309
aI334
aI351
aI376
aI455
aI485
aI697
aI989
aI999
aI1001
aI1075
aI1092
aI1110
aI1113
aI1115
aI1116
aI1118
aI1206
aI1299
aI1451
aI1677
aI1726
aI1733
aI1834
aI1837
aI1847
aI1945
aI1986
aI2011
aI2210
aI2328
aI2384
aI2391
aI2434
aI2501
aI2570
aI2584
aI2674
aI2759
aI2791
aI2906
aI2942
aI2959
aI2991
asg30
Nsg31
Nsbsg31
g50
(g51
(I0
tp5989
g53
tp5990
Rp5991
(I1
(I2
tp5992
g16
I00
S'\xc5Y\x115\xd1W!\xc0\xbd\xc2\x82\xfb\x01\x9fD@'
p5993
tp5994
bsbsg31
g50
(g51
(I0
tp5995
g53
tp5996
Rp5997
(I1
(I2
tp5998
g16
I00
S'x\xf0\x13\x07\xd0W!\xc0\xbd\xc2\x82\xfb\x01\x9fD@'
p5999
tp6000
bsbsg31
g50
(g51
(I0
tp6001
g53
tp6002
Rp6003
(I1
(I2
tp6004
g16
I00
S'x\xf0\x13\x07\xd0W!\xc0\xbd\xc2\x82\xfb\x01\x9fD@'
p6005
tp6006
bsbsg31
g50
(g51
(I0
tp6007
g53
tp6008
Rp6009
(I1
(I2
tp6010
g16
I00
S'+\x87\x16\xd9\xceW!\xc0\xbd\xc2\x82\xfb\x01\x9fD@'
p6011
tp6012
bsbsg31
g50
(g51
(I0
tp6013
g53
tp6014
Rp6015
(I1
(I2
tp6016
g16
I00
S'\xc5Y\x115\xd1W!\xc0dw\x81\x92\x02\x9fD@'
p6017
tp6018
bsbsg31
g50
(g51
(I0
tp6019
g53
tp6020
Rp6021
(I1
(I2
tp6022
g16
I00
S'\xde\xe3L\x13\xb6W!\xc0W\x95}W\x04\x9fD@'
p6023
tp6024
bsbsg31
g50
(g51
(I0
tp6025
g53
tp6026
Rp6027
(I1
(I2
tp6028
g16
I00
S',\xf1\x80\xb2)W!\xc0\x11\x1d\x02G\x02\x9fD@'
p6029
tp6030
bsbsg31
g50
(g51
(I0
tp6031
g53
tp6032
Rp6033
(I1
(I2
tp6034
g16
I00
S'\xabx#\xf3\xc8W!\xc0\x0b\xb8\xe7\xf9\xd3\x9eD@'
p6035
tp6036
bsbsg31
g50
(g51
(I0
tp6037
g53
tp6038
Rp6039
(I1
(I2
tp6040
g16
I00
S'\xabx#\xf3\xc8W!\xc0\x0b\xb8\xe7\xf9\xd3\x9eD@'
p6041
tp6042
bsbsg31
g50
(g51
(I0
tp6043
g53
tp6044
Rp6045
(I1
(I2
tp6046
g16
I00
S'x\xf0\x13\x07\xd0W!\xc0k\xf4j\x80\xd2\x9eD@'
p6047
tp6048
bsbsg31
g50
(g51
(I0
tp6049
g53
tp6050
Rp6051
(I1
(I2
tp6052
g16
I00
S'\xc5Y\x115\xd1W!\xc0k\xf4j\x80\xd2\x9eD@'
p6053
tp6054
bsbsg31
g50
(g51
(I0
tp6055
g53
tp6056
Rp6057
(I1
(I2
tp6058
g16
I00
S'\xc5Y\x115\xd1W!\xc0k\xf4j\x80\xd2\x9eD@'
p6059
tp6060
bsbsg31
g50
(g51
(I0
tp6061
g53
tp6062
Rp6063
(I1
(I2
tp6064
g16
I00
S'x\xf0\x13\x07\xd0W!\xc0\x11\xa9i\x17\xd3\x9eD@'
p6065
tp6066
bsbsg31
g50
(g51
(I0
tp6067
g53
tp6068
Rp6069
(I1
(I2
tp6070
g16
I00
S'\xc5Y\x115\xd1W!\xc0\x11\xa9i\x17\xd3\x9eD@'
p6071
tp6072
bsbsg31
g50
(g51
(I0
tp6073
g53
tp6074
Rp6075
(I1
(I2
tp6076
g16
I00
S'\xab\x95\t\xbf\xd4W!\xc0\x11\xa9i\x17\xd3\x9eD@'
p6077
tp6078
bsbsg31
g50
(g51
(I0
tp6079
g53
tp6080
Rp6081
(I1
(I2
tp6082
g16
I00
S'\xc5<+i\xc5W!\xc0DN_\xcf\xd7\x9eD@'
p6083
tp6084
bsbsg31
g50
(g51
(I0
tp6085
g53
tp6086
Rp6087
(I1
(I2
tp6088
g16
I00
S'F{\xbc\x90\x0eW!\xc0\xc4\xb3\x04\x19\x01\x9fD@'
p6089
tp6090
bsbsg31
g50
(g51
(I0
tp6091
g53
tp6092
Rp6093
(I1
(I2
tp6094
g16
I00
S'-C\x1c\xeb\xe2V!\xc0\xf8\xaa\x95\t\xbf\x9eD@'
p6095
tp6096
bsbsg31
g50
(g51
(I0
tp6097
g53
tp6098
Rp6099
(I1
(I2
tp6100
g16
I00
S'-&6\x1f\xd7V!\xc0\x84~\xa6^\xb7\x9eD@'
p6101
tp6102
bsbsg31
g50
(g51
(I0
tp6103
g53
tp6104
Rp6105
(I1
(I2
tp6106
g16
I00
S'y\xce\x16\x10ZW!\xc08\xf8\xc2d\xaa\x9eD@'
p6107
tp6108
bsbsg31
g50
(g51
(I0
tp6109
g53
tp6110
Rp6111
(I1
(I2
tp6112
g16
I00
S'`"\xde:\xffV!\xc0R\x9a\xcd\xe30\x9eD@'
p6113
tp6114
bsbsg31
g50
(g51
(I0
tp6115
g53
tp6116
Rp6117
(I1
(I2
tp6118
g16
I00
S'\xac\x8b\xdbh\x00W!\xc0\xac\xe5\xceL0\x9eD@'
p6119
tp6120
bsbsg31
g50
(g51
(I0
tp6121
g53
tp6122
Rp6123
(I1
(I2
tp6124
g16
I00
S'\x12\x84+\xa0PW!\xc0\x11\x18\xeb\x1b\x98\x9eD@'
p6125
tp6126
bsbsg31
g50
(g51
(I0
tp6127
g53
tp6128
Rp6129
(I1
(I2
tp6130
g16
I00
S'\x13\xb9\xe0\x0c\xfeV!\xc0\x12\xf6\xed$"\x9eD@'
p6131
tp6132
bsbsg31
g50
(g51
(I0
tp6133
g53
tp6134
Rp6135
(I1
(I2
tp6136
g16
I00
S'\xac\xffs\x98/W!\xc0X\x1c\xce\xfcj\x9eD@'
p6137
tp6138
bsbsg31
g50
(g51
(I0
tp6139
g53
tp6140
Rp6141
(I1
(I2
tp6142
g16
I00
S'\x93\xaa\xed&\xf8V!\xc0Y\x8bO\x010\x9eD@'
p6143
tp6144
bsbsg31
g50
(g51
(I0
tp6145
g53
tp6146
Rp6147
(I1
(I2
tp6148
g16
I00
S'F\x07$a\xdfV!\xc0\xf8k\xb2F=\x9eD@'
p6149
tp6150
bsbsg31
g50
(g51
(I0
tp6151
g53
tp6152
Rp6153
(I1
(I2
tp6154
g16
I00
S'\xac\xa8\xc14\x0cW!\xc0\xf2\xd1\xe2\x8ca\x9eD@'
p6155
tp6156
bsbsg31
g50
(g51
(I0
tp6157
g53
tp6158
Rp6159
(I1
(I2
tp6160
g16
I00
S'\xac\xffs\x98/W!\xc0\xd1\xca\xbd\xc0\xac\x9eD@'
p6161
tp6162
bsbsg31
g50
(g51
(I0
tp6163
g53
tp6164
Rp6165
(I1
(I2
tp6166
g16
I00
S"_'\xf5eiW!\xc0\xe5\x80]M\x9e\x9eD@"
p6167
tp6168
bsbsg31
g50
(g51
(I0
tp6169
g53
tp6170
Rp6171
(I1
(I2
tp6172
g16
I00
S'\xf8P\xa2%\x8fW!\xc0\xeb\x8e\xc56\xa9\x9eD@'
p6173
tp6174
bsbsg31
g50
(g51
(I0
tp6175
g53
tp6176
Rp6177
(I1
(I2
tp6178
g16
I00
S'\x92\xaf\x04RbW!\xc0\x18\xec\x86m\x8b\x9eD@'
p6179
tp6180
bsbsg31
g50
(g51
(I0
tp6181
g53
tp6182
Rp6183
(I1
(I2
tp6184
g16
I00
S'zUg\xb5\xc0V!\xc0\xac\xab\x02\xb5\x18\x9eD@'
p6185
tp6186
bsbsg31
g50
(g51
(I0
tp6187
g53
tp6188
Rp6189
(I1
(I2
tp6190
g16
I00
S'\xdf5\xe8KoW!\xc0\xd8\x81sF\x94\x9eD@'
p6191
tp6192
bsbsg31
g50
(g51
(I0
tp6193
g53
tp6194
Rp6195
(I1
(I2
tp6196
g16
I00
S'e\x8b\xa4\xdd\xe8S!\xc0\xf9\xf7\x19\x17\x0e\x9eD@'
p6197
tp6198
bsbsg31
g50
(g51
(I0
tp6199
g53
tp6200
Rp6201
(I1
(I2
tp6202
g16
I00
S'2\xe6\xae%\xe4S!\xc0RC\x1b\x80\r\x9eD@'
p6203
tp6204
bsbsg31
g50
(g51
(I0
tp6205
g53
tp6206
Rp6207
(I1
(I2
tp6208
g16
I00
S'\x17\xf2\x08n\xa4T!\xc0R\x0ef\x13`\x9eD@'
p6209
tp6210
bsbsg31
g50
(g51
(I0
tp6211
g53
tp6212
Rp6213
(I1
(I2
tp6214
g16
I00
S'\xc7\xf3\x19PoV!\xc0\xf3\x92\xff\xc9\xdf\x9dD@'
p6215
tp6216
bsbsg31
g50
(g51
(I0
tp6217
g53
tp6218
Rp6219
(I1
(I2
tp6220
g16
I00
S'Ig`\xe4eU!\xc0\xa6F\xe8g\xea\x9dD@'
p6221
tp6222
bsbsg31
g50
(g51
(I0
tp6223
g53
tp6224
Rp6225
(I1
(I2
tp6226
g16
I00
S'b\xbc\xe6U\x9dU!\xc0r\xf8\xa4\x13\t\x9eD@'
p6227
tp6228
bsbsg31
g50
(g51
(I0
tp6229
g53
tp6230
Rp6231
(I1
(I2
tp6232
g16
I00
S'\xcc\x9b\xc3\xb5\xdaS!\xc0\x06\xda\x1dR\x0c\x9eD@'
p6233
tp6234
bsbsg31
g50
(g51
(I0
tp6235
g53
tp6236
Rp6237
(I1
(I2
tp6238
g16
I00
S'\xaf\xb1KToU!\xc0\x9fUfJ\xeb\x9dD@'
p6239
tp6240
bsbsg31
g50
(g51
(I0
tp6241
g53
tp6242
Rp6243
(I1
(I2
tp6244
g16
I00
S'b0\x7f\x85\xccU!\xc0\x92\xe7\xfa>\x1c\x9eD@'
p6245
tp6246
bsbsg31
g50
(g51
(I0
tp6247
g53
tp6248
Rp6249
(I1
(I2
tp6250
g16
I00
S'\x18\x05\xc1\xe3\xdbS!\xc0\x06\xda\x1dR\x0c\x9eD@'
p6251
tp6252
bsbsg31
g50
(g51
(I0
tp6253
g53
tp6254
Rp6255
(I1
(I2
tp6256
g16
I00
S'\xe29[@hU!\xc0\x9fUfJ\xeb\x9dD@'
p6257
tp6258
bsbsg31
g50
(g51
(I0
tp6259
g53
tp6260
Rp6261
(I1
(I2
tp6262
g16
I00
S'\x94k\ndvV!\xc0\xdf\xbfyq\xe2\x9dD@'
p6263
tp6264
bsbsg31
g50
(g51
(I0
tp6265
g53
tp6266
Rp6267
(I1
(I2
tp6268
g16
I00
S'3\xa7\xcbbbS!\xc0EIH\xa4m\x9eD@'
p6269
tp6270
bsbsg31
g50
(g51
(I0
tp6271
g53
tp6272
Rp6273
(I1
(I2
tp6274
g16
I00
S'\xe3\xe2\xa8\xdcDU!\xc0xz\xa5,C\x9eD@'
p6275
tp6276
bsbsg31
g50
(g51
(I0
tp6277
g53
tp6278
Rp6279
(I1
(I2
tp6280
g16
I00
S'`?\xc4\x06\x0bW!\xc0\x1fL\x8a\x8fO\x9eD@'
p6281
tp6282
bsbsg31
g50
(g51
(I0
tp6283
g53
tp6284
Rp6285
(I1
(I2
tp6286
g16
I00
S'\xcd\xae{+\x12S!\xc0\x9f \xb1\xdd=\x9eD@'
p6287
tp6288
bsbsg31
g50
(g51
(I0
tp6289
g53
tp6290
Rp6291
(I1
(I2
tp6292
g16
I00
S'\xad\xfa\\m\xc5V!\xc0\xb3(\xec\xa2\xe8\x9dD@'
p6293
tp6294
bsbsg31
g50
(g51
(I0
tp6295
g53
tp6296
Rp6297
(I1
(I2
tp6298
g16
I00
S'3\xa7\xcbbbS!\xc0R+L\xdfk\x9eD@'
p6299
tp6300
bsbsg31
g50
(g51
(I0
tp6301
g53
tp6302
Rp6303
(I1
(I2
tp6304
g16
I00
S'\x1a\x18yY\x13S!\xc0\xf2z0)>\x9eD@'
p6305
tp6306
bsbsg31
g50
(g51
(I0
tp6307
g53
tp6308
Rp6309
(I1
(I2
tp6310
g16
I00
S'.\xc5Ue\xdfU!\xc0\x8c+.\x8e\xca\x9dD@'
p6311
tp6312
bsbsg31
g50
(g51
(I0
tp6313
g53
tp6314
Rp6315
(I1
(I2
tp6316
g16
I00
S'\xfbv\x12\x11\xfeU!\xc0\x92[\x93nK\x9eD@'
p6317
tp6318
bsbsg31
g50
(g51
(I0
tp6319
g53
tp6320
Rp6321
(I1
(I2
tp6322
g16
I00
S'\xaf|\x96\xe7\xc1U!\xc0lv\xa4\xfa\xce\x9dD@'
p6323
tp6324
bsbsg31
g50
(g51
(I0
tp6325
g53
tp6326
Rp6327
(I1
(I2
tp6328
g16
I00
S'c&Q/\xf8T!\xc0\x92\xca\x14s\x10\x9eD@'
p6329
tp6330
bsbsg31
g50
(g51
(I0
tp6331
g53
tp6332
Rp6333
(I1
(I2
tp6334
g16
I00
S"\x95'\x10v\x8aU!\xc0\xb2b\xb8:\x00\x9eD@"
p6335
tp6336
bsbsg31
g50
(g51
(I0
tp6337
g53
tp6338
Rp6339
(I1
(I2
tp6340
g16
I00
S'\x96\xb3wF[U!\xc0\x99G\xfe`\xe0\x9dD@'
p6341
tp6342
bsbsg31
g50
(g51
(I0
tp6343
g53
tp6344
Rp6345
(I1
(I2
tp6346
g16
I00
S'|\xefo\xd0^U!\xc0yu\x8e\x01\xd9\x9dD@'
p6347
tp6348
bsbsg31
g50
(g51
(I0
tp6349
g53
tp6350
Rp6351
(I1
(I2
tp6352
g16
I00
S'\x96\xd0]\x12gU!\xc0\x86:\xacp\xcb\x9dD@'
p6353
tp6354
bsbsg31
g50
(g51
(I0
tp6355
g53
tp6356
Rp6357
(I1
(I2
tp6358
g16
I00
S'bjK\x1d\xe4U!\xc0y@\xd9\x94+\x9eD@'
p6359
tp6360
bsbsg31
g50
(g51
(I0
tp6361
g53
tp6362
Rp6363
(I1
(I2
tp6364
g16
I00
S'\xe2\x90\r\xa4\x8bU!\xc0R&5\xb4\x01\x9eD@'
p6365
tp6366
bsbsg31
g50
(g51
(I0
tp6367
g53
tp6368
Rp6369
(I1
(I2
tp6370
g16
I00
S'\xc9Xm\xfe_U!\xc0S\xb2\x9c\x84\xd2\x9dD@'
p6371
tp6372
bsbsg31
g50
(g51
(I0
tp6373
g53
tp6374
Rp6375
(I1
(I2
tp6376
g16
I00
S'\xe1\xb2\n\x9b\x01V!\xc0M0\x9ck\x98\x9dD@'
p6377
tp6378
bsbsg31
g50
(g51
(I0
tp6379
g53
tp6380
Rp6381
(I1
(I2
tp6382
g16
I00
S'/\x86r\xa2]U!\xc0\xf3\x92\xff\xc9\xdf\x9dD@'
p6383
tp6384
bsbsg31
g50
(g51
(I0
tp6385
g53
tp6386
Rp6387
(I1
(I2
tp6388
g16
I00
S'\xaf\x99|\xb3\xcdU!\xc0\xd3/\x11o\x9d\x9dD@'
p6389
tp6390
bsbsg31
g50
(g51
(I0
tp6391
g53
tp6392
Rp6393
(I1
(I2
tp6394
g16
I00
S'z\xa7\x02\xeeyV!\xc0\x86tx\x08\xe3\x9dD@'
p6395
tp6396
bsbsg31
g50
(g51
(I0
tp6397
g53
tp6398
Rp6399
(I1
(I2
tp6400
g16
I00
S'\x96\xe8,\xb3\x08U!\xc0x\x0b$(~\x9eD@'
p6401
tp6402
bsbsg31
g50
(g51
(I0
tp6403
g53
tp6404
Rp6405
(I1
(I2
tp6406
g16
I00
S'0L\xa6\nFU!\xc0\x85\\\xa9gA\x9eD@'
p6407
tp6408
bsbsg31
g50
(g51
(I0
tp6409
g53
tp6410
Rp6411
(I1
(I2
tp6412
g16
I00
S'\x97\x91zO\xe5T!\xc0K\x00\xfe)U\x9eD@'
p6413
tp6414
bsbsg31
g50
(g51
(I0
tp6415
g53
tp6416
Rp6417
(I1
(I2
tp6418
g16
I00
S'\xc8\xd1\x1cY\xf9U!\xc0\xd2n\xf41\x1f\x9eD@'
p6419
tp6420
bsbsg31
g50
(g51
(I0
tp6421
g53
tp6422
Rp6423
(I1
(I2
tp6424
g16
I00
S'c\x0e\x82\x8eVU!\xc0\xcc\t\xda\xe4\xf0\x9dD@'
p6425
tp6426
bsbsb.