(itree
Tree
p0
(dp1
S'root'
p2
(inode
Node
p3
(dp4
S'right'
p5
(inode
Node
p6
(dp7
g5
NsS'prediction'
p8
(lp9
cnumpy.core.multiarray
scalar
p10
(cnumpy
dtype
p11
(S'f8'
p12
I0
I1
tp13
Rp14
(I3
S'<'
p15
NNNI-1
I-1
I0
tp16
bS'^"(\xc8\x99C!\xc0'
p17
tp18
Rp19
ag10
(g14
S'\xfa\xcc\xa3,M\x98D@'
p20
tp21
Rp22
asS'starting_points_idx'
p23
(lp24
I0
aI0
aI0
aI0
aI0
aI0
aI0
aI0
aI0
aI0
aI0
aI0
aI0
aI0
aI0
aI0
aI0
aI0
aI0
aI0
aI0
aI0
aI0
aI0
aI0
aI0
aI0
aI0
aI0
aI0
aI0
aI0
aI0
aI0
aI0
aI0
aI0
aI0
aI0
aI0
aI0
aI0
aI0
aI0
aI0
aI0
aI0
aI0
aI0
aI0
aI0
aI0
aI0
aI0
aI0
aI0
aI0
aI0
aI0
aI0
aI0
aI0
aI0
aI0
aI0
aI0
aI0
aI0
aI0
aI0
aI0
aI0
aI0
aI0
aI0
aI0
aI0
aI0
aI0
aI0
asS'radius'
p25
NsS'trajectory_idx'
p26
(lp27
I20
aI26
aI30
aI105
aI169
aI252
aI296
aI374
aI399
aI417
aI484
aI637
aI672
aI694
aI749
aI861
aI867
aI869
aI906
aI930
aI939
aI944
aI946
aI954
aI992
aI1132
aI1158
aI1161
aI1172
aI1212
aI1231
aI1244
aI1255
aI1257
aI1370
aI1459
aI1504
aI1561
aI1652
aI1657
aI1696
aI1848
aI1887
aI1889
aI1893
aI1906
aI1938
aI1966
aI1989
aI2028
aI2048
aI2103
aI2113
aI2157
aI2158
aI2172
aI2173
aI2192
aI2299
aI2306
aI2319
aI2430
aI2445
aI2516
aI2537
aI2568
aI2741
aI2805
aI2819
aI2860
aI2867
aI2888
aI2907
aI2913
aI2924
aI2937
aI2951
aI2965
aI3006
aI3023
asS'left'
p28
NsS'decision_point'
p29
Nsbsg8
(lp30
g10
(g14
S'Y\xe0\x82}\xa58!\xc0'
p31
tp32
Rp33
ag10
(g14
S'`\x01\xe2l\xcd\x97D@'
p34
tp35
Rp36
asg23
Nsg25
F1.0156088752120076
sg26
Nsg28
(inode
Node
p37
(dp38
g5
(inode
Node
p39
(dp40
g5
Nsg8
(lp41
g10
(g14
S'wQ5\xfc\xab<!\xc0'
p42
tp43
Rp44
ag10
(g14
S'\xb7\x82(\x9c\x1e\x96D@'
p45
tp46
Rp47
asg23
(lp48
I1
aI1
aI1
aI1
aI1
aI1
aI1
aI1
aI1
aI1
aI1
aI1
aI1
aI1
asg25
Nsg26
(lp49
I78
aI124
aI808
aI840
aI953
aI973
aI1009
aI1105
aI1302
aI1350
aI2340
aI2397
aI2560
aI2930
asg28
Nsg29
Nsbsg8
(lp50
g10
(g14
S',\xc0xjY8!\xc0'
p51
tp52
Rp53
ag10
(g14
S'\x16W\xb3\xf5\xc9\x97D@'
p54
tp55
Rp56
asg23
Nsg25
F1.2476205420970252
sg26
Nsg28
(inode
Node
p57
(dp58
g5
(inode
Node
p59
(dp60
g5
Nsg8
(lp61
g10
(g14
S'\xb2\xa1\xd5\xa8\x0b9!\xc0'
p62
tp63
Rp64
ag10
(g14
S'\x89\x05B\xdb\xff\x9cD@'
p65
tp66
Rp67
asg23
(lp68
I2
aI2
aI2
aI2
aI2
aI2
aI2
aI2
aI2
aI2
aI2
aI2
aI2
aI2
aI2
aI2
aI2
aI2
aI2
aI2
aI2
aI2
aI2
aI2
aI2
aI2
aI2
aI2
aI2
aI2
aI2
aI2
aI2
aI2
aI2
aI2
aI2
aI2
aI2
aI2
aI2
aI2
aI2
aI2
aI2
aI2
aI2
aI2
aI2
aI2
aI2
aI2
aI2
aI2
aI2
aI2
aI2
aI2
aI2
aI2
aI2
aI2
aI2
aI2
aI2
aI2
aI2
aI2
aI2
aI2
aI2
aI2
aI2
aI2
aI2
asg25
Nsg26
(lp69
I14
aI153
aI167
aI170
aI194
aI212
aI223
aI234
aI273
aI291
aI342
aI348
aI453
aI458
aI467
aI523
aI530
aI542
aI560
aI625
aI630
aI652
aI717
aI723
aI811
aI823
aI827
aI862
aI912
aI924
aI935
aI959
aI1006
aI1023
aI1026
aI1038
aI1056
aI1085
aI1124
aI1140
aI1181
aI1192
aI1246
aI1283
aI1288
aI1301
aI1351
aI1388
aI1466
aI1584
aI1597
aI1617
aI1771
aI2013
aI2037
aI2122
aI2123
aI2165
aI2239
aI2248
aI2264
aI2344
aI2352
aI2373
aI2423
aI2474
aI2484
aI2609
aI2672
aI2685
aI2786
aI2853
aI2876
aI2889
aI2898
asg28
Nsg29
Nsbsg8
(lp70
g10
(g14
S'Y\xbc\x7f\xcb\xce8!\xc0'
p71
tp72
Rp73
ag10
(g14
S'R\x82\xf6\x9a\xba\x97D@'
p74
tp75
Rp76
asg23
Nsg25
F1.1356324586792772
sg26
Nsg28
(inode
Node
p77
(dp78
g5
(inode
Node
p79
(dp80
g5
Nsg8
(lp81
g10
(g14
S'\x9eY\xf3.\nI!\xc0'
p82
tp83
Rp84
ag10
(g14
S'\x9c\xad\xdbU\x1c\x92D@'
p85
tp86
Rp87
asg23
(lp88
I3
aI3
aI3
aI3
aI3
aI3
aI3
aI3
aI3
aI3
aI3
aI3
aI3
aI3
aI3
aI3
aI3
aI3
aI3
aI3
aI3
aI3
asg25
Nsg26
(lp89
I207
aI210
aI416
aI495
aI513
aI628
aI640
aI642
aI719
aI824
aI878
aI1169
aI1405
aI1514
aI1648
aI1691
aI1900
aI1978
aI2067
aI2198
aI2218
aI2757
asg28
Nsg29
Nsbsg8
(lp90
g10
(g14
S'\x83\x82\x18\xe4\t9!\xc0'
p91
tp92
Rp93
ag10
(g14
S'\xd3\x18\xf8\xc4y\x97D@'
p94
tp95
Rp96
asg23
Nsg25
F1.1942273445750653
sg26
Nsg28
(inode
Node
p97
(dp98
g5
(inode
Node
p99
(dp100
g5
(inode
Node
p101
(dp102
g5
Nsg8
(lp103
g10
(g14
S'7\xa8\xfd\xd6NL!\xc0'
p104
tp105
Rp106
ag10
(g14
S'\x19\xce5\xcc\xd0\x9aD@'
p107
tp108
Rp109
asg23
(lp110
I4
aI4
aI4
asg25
Nsg26
(lp111
I131
aI2330
aI2640
asg28
Nsg29
Nsbsg8
(lp112
g10
(g14
S'\xd1*\xc0\xcaG>!\xc0'
p113
tp114
Rp115
ag10
(g14
S'\x8a\xca\xa4\xc2P\x99D@'
p116
tp117
Rp118
asg23
Nsg25
F1.2379218140236998
sg26
Nsg28
(inode
Node
p119
(dp120
g5
(inode
Node
p121
(dp122
g5
Nsg8
(lp123
g10
(g14
S'*\xb9\xd4R\x8a\xbf \xc0'
p124
tp125
Rp126
ag10
(g14
S'\xd5\x97\xa5\x9d\x9a\xa7D@'
p127
tp128
Rp129
asg23
(lp130
I5
aI5
aI5
aI5
aI5
asg25
Nsg26
(lp131
I283
aI1670
aI1755
aI2004
aI2852
asg28
Nsg29
Nsbsg8
(lp132
g10
(g14
S'\xebG\xb0^23!\xc0'
p133
tp134
Rp135
ag10
(g14
S'\x0c\x08\xad\x87o\x98D@'
p136
tp137
Rp138
asg23
Nsg25
F1.0161420311883818
sg26
Nsg28
(inode
Node
p139
(dp140
g5
(inode
Node
p141
(dp142
g5
Nsg8
(lp143
g10
(g14
S'\xcb -\x84\x8b\x0b!\xc0'
p144
tp145
Rp146
ag10
(g14
S'\r\xef(\x84\xc4\x96D@'
p147
tp148
Rp149
asg23
(lp150
I6
aI6
aI6
aI6
aI6
aI6
aI6
aI6
aI6
aI6
aI6
aI6
aI6
aI6
aI6
asg25
Nsg26
(lp151
I136
aI305
aI447
aI649
aI709
aI1354
aI1565
aI1568
aI1835
aI1947
aI2534
aI2700
aI2793
aI2952
aI2972
asg28
Nsg29
Nsbsg8
(lp152
g10
(g14
S'\x95\x9f\x05T\xfe5!\xc0'
p153
tp154
Rp155
ag10
(g14
S'\xd8\x06nb\x14\x98D@'
p156
tp157
Rp158
asg23
Nsg25
F1.1483489400769817
sg26
Nsg28
(inode
Node
p159
(dp160
g5
(inode
Node
p161
(dp162
g5
Nsg8
(lp163
g10
(g14
S'\x18\x08\x02d\xe8@!\xc0'
p164
tp165
Rp166
ag10
(g14
S'\xf3\x1f\xd2o_\x95D@'
p167
tp168
Rp169
asg23
(lp170
I7
aI7
aI7
asg25
Nsg26
(lp171
I2278
aI2648
aI2663
asg28
Nsg29
Nsbsg8
(lp172
g10
(g14
S'\xa3\x0bS\xcf\xa59!\xc0'
p173
tp174
Rp175
ag10
(g14
S'[\xd3\x17\x9d\x87\x98D@'
p176
tp177
Rp178
asg23
Nsg25
F1.7213373808152634
sg26
Nsg28
(inode
Node
p179
(dp180
g5
(inode
Node
p181
(dp182
g5
Nsg8
(lp183
g10
(g14
S'\xcf\xf7S\xe3\xa5C!\xc0'
p184
tp185
Rp186
ag10
(g14
S'\xa8qo~C\x98D@'
p187
tp188
Rp189
asg23
(lp190
I8
aI8
aI8
aI8
asg25
Nsg26
(lp191
I476
aI2040
aI2421
aI2899
asg28
Nsg29
Nsbsg8
(lp192
g10
(g14
S'\xd8~\xfdZr;!\xc0'
p193
tp194
Rp195
ag10
(g14
S'\xaf\xa6(\xd3\xd5\x97D@'
p196
tp197
Rp198
asg23
Nsg25
F2.420106733430596
sg26
Nsg28
(inode
Node
p199
(dp200
g5
(inode
Node
p201
(dp202
g5
Nsg8
(lp203
g10
(g14
S'\xc6\x15\x17G\xe5V!\xc0'
p204
tp205
Rp206
ag10
(g14
S'\xd2\xe2\x8caN\x9eD@'
p207
tp208
Rp209
asg23
(lp210
I9
asg25
Nsg26
(lp211
I1761
asg28
Nsg29
Nsbsg8
(lp212
g10
(g14
S'\xda\x15\x80%\x9a;!\xc0'
p213
tp214
Rp215
ag10
(g14
S'\xa8\xcc\xe3\xc1!\x98D@'
p216
tp217
Rp218
asg23
Nsg25
F2.932471244900775
sg26
Nsg28
(inode
Node
p219
(dp220
g5
(inode
Node
p221
(dp222
g5
Nsg8
(lp223
g10
(g14
S'IV4\x8cq6!\xc0'
p224
tp225
Rp226
ag10
(g14
S'\xbe\xfd^\xafU\x9bD@'
p227
tp228
Rp229
asg23
(lp230
I10
aI10
aI10
aI10
aI10
aI10
aI10
aI10
aI10
aI10
aI10
aI10
aI10
aI10
aI10
aI10
aI10
aI10
aI10
aI10
asg25
Nsg26
(lp231
I133
aI163
aI271
aI425
aI507
aI658
aI744
aI1060
aI1227
aI1446
aI1829
aI1869
aI1972
aI2155
aI2176
aI2237
aI2241
aI2724
aI2780
aI2976
asg28
Nsg29
Nsbsg8
(lp232
g10
(g14
S'\x9b\x0e\xc7\xee\xbe;!\xc0'
p233
tp234
Rp235
ag10
(g14
S'\x8d\xc8\xc0\xd7\x1c\x98D@'
p236
tp237
Rp238
asg23
Nsg25
F3.1142065478649537
sg26
Nsg28
(inode
Node
p239
(dp240
g5
(inode
Node
p241
(dp242
g5
Nsg8
(lp243
g10
(g14
S'MhqJi;!\xc0'
p244
tp245
Rp246
ag10
(g14
S'\xcd\xf1\xc0\xb64\x9bD@'
p247
tp248
Rp249
asg23
(lp250
I11
aI11
aI11
aI11
aI11
aI11
aI11
aI11
aI11
aI11
aI11
aI11
aI11
aI11
aI11
aI11
aI11
aI11
aI11
aI11
aI11
aI11
aI11
aI11
aI11
aI11
aI11
aI11
aI11
aI11
aI11
aI11
aI11
aI11
aI11
aI11
aI11
aI11
aI11
aI11
aI11
aI11
aI11
aI11
aI11
aI11
aI11
aI11
aI11
aI11
asg25
Nsg26
(lp251
I115
aI164
aI198
aI233
aI313
aI319
aI340
aI438
aI479
aI532
aI680
aI778
aI791
aI818
aI872
aI873
aI897
aI955
aI984
aI1030
aI1225
aI1320
aI1420
aI1421
aI1470
aI1488
aI1500
aI1559
aI1567
aI1743
aI1753
aI1770
aI1800
aI1805
aI1807
aI1855
aI1976
aI2147
aI2194
aI2282
aI2517
aI2576
aI2595
aI2598
aI2599
aI2607
aI2702
aI2813
aI2841
aI2903
asg28
Nsg29
Nsbsg8
(lp252
g10
(g14
S'\xc13 \xb8d<!\xc0'
p253
tp254
Rp255
ag10
(g14
S'\xf0!\x1e#\xb8\x97D@'
p256
tp257
Rp258
asg23
Nsg25
F3.237765989764962
sg26
Nsg28
(inode
Node
p259
(dp260
g5
(inode
Node
p261
(dp262
g5
Nsg8
(lp263
g10
(g14
S'\x1c\xeb\xe26\x1a0!\xc0'
p264
tp265
Rp266
ag10
(g14
S'RhY\xf7\x8f\x94D@'
p267
tp268
Rp269
asg23
(lp270
I12
aI12
aI12
aI12
aI12
aI12
aI12
aI12
aI12
aI12
aI12
aI12
asg25
Nsg26
(lp271
I357
aI864
aI977
aI1136
aI1369
aI1521
aI1812
aI2390
aI2487
aI2699
aI2847
aI2993
asg28
Nsg29
Nsbsg8
(lp272
g10
(g14
S'\xe6\xb8D\x13%;!\xc0'
p273
tp274
Rp275
ag10
(g14
S'\xe5\x86\xd0&\x84\x97D@'
p276
tp277
Rp278
asg23
Nsg25
F1.444080840795499
sg26
Nsg28
(inode
Node
p279
(dp280
g5
(inode
Node
p281
(dp282
g5
Nsg8
(lp283
g10
(g14
S'\xf3\x1c\x91\xefR6!\xc0'
p284
tp285
Rp286
ag10
(g14
S'\xac\xf2NOi\x9cD@'
p287
tp288
Rp289
asg23
(lp290
I13
aI13
aI13
aI13
aI13
aI13
aI13
aI13
aI13
aI13
asg25
Nsg26
(lp291
I436
aI501
aI506
aI1467
aI2314
aI2369
aI2371
aI2677
aI2977
aI3026
asg28
Nsg29
Nsbsg8
(lp292
g10
(g14
S'\x0f\xe6\x04\xb2@>!\xc0'
p293
tp294
Rp295
ag10
(g14
S'T\x9b\xdb\xcb<\x98D@'
p296
tp297
Rp298
asg23
Nsg25
F1.0402477839179454
sg26
Nsg28
(inode
Node
p299
(dp300
g5
Nsg8
(lp301
g10
(g14
S'\x91\x13\xadi\xca=!\xc0'
p302
tp303
Rp304
ag10
(g14
S'\x81\xc1|\x93~\x97D@'
p305
tp306
Rp307
asg23
(lp308
I14
aI14
aI14
aI14
aI14
aI14
aI14
aI14
aI14
aI14
aI14
aI14
aI14
aI14
aI14
aI14
aI14
aI14
aI14
aI14
aI14
aI14
aI14
aI14
aI14
aI14
aI14
aI14
aI14
aI14
aI14
aI14
aI14
aI14
aI14
aI14
aI14
aI14
aI14
aI14
aI14
aI14
aI14
aI14
aI14
aI14
aI14
aI14
aI14
aI14
aI14
aI14
aI14
aI14
aI14
aI14
aI14
aI14
aI14
aI14
aI14
aI14
aI14
aI14
aI14
aI14
aI14
aI14
aI14
aI14
aI14
aI14
aI14
aI14
aI14
aI14
aI14
aI14
aI14
aI14
aI14
aI14
aI14
aI14
aI14
aI14
aI14
aI14
aI14
aI14
aI14
asg25
Nsg26
(lp309
I10
aI37
aI60
aI81
aI95
aI101
aI120
aI134
aI172
aI203
aI228
aI287
aI355
aI429
aI464
aI548
aI553
aI562
aI693
aI740
aI792
aI844
aI884
aI888
aI911
aI996
aI997
aI1019
aI1029
aI1082
aI1121
aI1154
aI1175
aI1248
aI1254
aI1332
aI1334
aI1375
aI1378
aI1389
aI1398
aI1423
aI1449
aI1460
aI1471
aI1576
aI1602
aI1650
aI1660
aI1665
aI1673
aI1708
aI1727
aI1734
aI1740
aI1775
aI1781
aI1839
aI1899
aI1929
aI1990
aI1992
aI2054
aI2104
aI2135
aI2180
aI2182
aI2185
aI2187
aI2231
aI2272
aI2335
aI2399
aI2429
aI2505
aI2514
aI2573
aI2581
aI2597
aI2664
aI2729
aI2731
aI2749
aI2783
aI2815
aI2818
aI2873
aI2878
aI2887
aI3007
aI3010
asg28
Nsg29
Nsbsg29
cnumpy.core.multiarray
_reconstruct
p310
(cnumpy
ndarray
p311
(I0
tp312
S'b'
p313
tp314
Rp315
(I1
(I2
tp316
g14
I00
S'\xee\xb45"\x18O!\xc0\x8d\x99D\xbd\xe0\x99D@'
p317
tp318
bsbsg29
g310
(g311
(I0
tp319
g313
tp320
Rp321
(I1
(I2
tp322
g14
I00
S'p]1#\xbcM!\xc0\xf90{\xd9v\x9aD@'
p323
tp324
bsbsg29
g310
(g311
(I0
tp325
g313
tp326
Rp327
(I1
(I2
tp328
g14
I00
S'\xa3\xe5@\x0f\xb5M!\xc0\xcc*l\x06\xb8\x9aD@'
p329
tp330
bsbsg29
g310
(g311
(I0
tp331
g313
tp332
Rp333
(I1
(I2
tp334
g14
I00
S'\xf0\xdf\xbc8\xf1M!\xc0\xa5\xf8\xf8\x84\xec\x9aD@'
p335
tp336
bsbsg29
g310
(g311
(I0
tp337
g313
tp338
Rp339
(I1
(I2
tp340
g14
I00
S';\xc2i\xc1\x8bN!\xc0KxB\xaf?\x9bD@'
p341
tp342
bsbsg29
g310
(g311
(I0
tp343
g313
tp344
Rp345
(I1
(I2
tp346
g14
I00
S'\x85\xb3[\xcbdP!\xc0\x83\x87i\xdf\xdc\x9bD@'
p347
tp348
bsbsg29
g310
(g311
(I0
tp349
g313
tp350
Rp351
(I1
(I2
tp352
g14
I00
S'\xff@\xb9m\xdfS!\xc0\xb4\xaa%\x1d\xe5\x9cD@'
p353
tp354
bsbsg29
g310
(g311
(I0
tp355
g313
tp356
Rp357
(I1
(I2
tp358
g14
I00
S'\xc7-\xe6\xe7\x86V!\xc0\x01N\xef\xe2\xfd\x9cD@'
p359
tp360
bsbsg29
g310
(g311
(I0
tp361
g313
tp362
Rp363
(I1
(I2
tp364
g14
I00
S'G\x1f\xf3\x01\x81V!\xc0tz\xde\x8d\x05\x9dD@'
p365
tp366
bsbsg29
g310
(g311
(I0
tp367
g313
tp368
Rp369
(I1
(I2
tp370
g14
I00
S'\xc6\xdbJ\xaf\xcdV!\xc0a\xc4>\x01\x14\x9dD@'
p371
tp372
bsbsg8
(lp373
g10
(g14
S'\xb7\xd2\x0f\x1b\x8c8!\xc0'
p374
tp375
Rp376
ag10
(g14
S'\xd2\x1e27\xb5\x97D@'
p377
tp378
Rp379
asg23
Nsg25
F1.1359591264405966
sg26
Nsg28
(inode
Node
p380
(dp381
g5
(inode
Node
p382
(dp383
g5
Nsg8
(lp384
g10
(g14
S'B\x00\xa0\xfbe?!\xc0'
p385
tp386
Rp387
ag10
(g14
S"@'\x0f\xd7\xb8\x95D@"
p388
tp389
Rp390
asg23
(lp391
I5
aI5
aI5
aI5
aI5
aI5
aI5
aI5
aI5
aI5
aI5
aI5
aI5
aI5
aI5
aI5
aI5
aI5
aI5
aI5
aI5
aI5
aI5
aI5
aI5
aI5
aI5
aI5
aI5
aI5
aI5
aI5
aI5
aI5
aI5
asg25
Nsg26
(lp392
I42
aI144
aI312
aI442
aI472
aI497
aI545
aI657
aI735
aI739
aI882
aI966
aI972
aI1098
aI1190
aI1315
aI1324
aI1555
aI1637
aI1699
aI1701
aI1951
aI2059
aI2073
aI2112
aI2202
aI2235
aI2409
aI2465
aI2535
aI2608
aI2734
aI2778
aI2825
aI2997
asg28
Nsg29
Nsbsg8
(lp393
g10
(g14
S'\xd9`7\x97\x148!\xc0'
p394
tp395
Rp396
ag10
(g14
S'\x1bA1Bi\x97D@'
p397
tp398
Rp399
asg23
Nsg25
F1.0287977618973643
sg26
Nsg28
(inode
Node
p400
(dp401
g5
(inode
Node
p402
(dp403
g5
Nsg8
(lp404
g10
(g14
S'\xdbBL\xb4\x83=!\xc0'
p405
tp406
Rp407
ag10
(g14
S"'\xae\x80\xb9E\x94D@"
p408
tp409
Rp410
asg23
(lp411
I6
aI6
aI6
aI6
aI6
aI6
aI6
aI6
aI6
aI6
aI6
aI6
aI6
aI6
aI6
aI6
aI6
aI6
aI6
aI6
aI6
aI6
aI6
aI6
aI6
aI6
aI6
aI6
aI6
aI6
aI6
aI6
aI6
aI6
aI6
aI6
aI6
aI6
aI6
aI6
aI6
aI6
aI6
aI6
aI6
aI6
aI6
aI6
aI6
aI6
aI6
aI6
aI6
aI6
aI6
aI6
aI6
aI6
aI6
aI6
aI6
aI6
aI6
aI6
aI6
aI6
aI6
aI6
aI6
aI6
aI6
aI6
aI6
aI6
aI6
aI6
aI6
aI6
aI6
aI6
aI6
aI6
aI6
aI6
aI6
aI6
aI6
aI6
aI6
aI6
aI6
aI6
aI6
aI6
aI6
aI6
aI6
aI6
asg25
Nsg26
(lp412
I40
aI99
aI139
aI165
aI175
aI254
aI284
aI294
aI336
aI398
aI402
aI408
aI432
aI471
aI551
aI584
aI665
aI671
aI691
aI722
aI737
aI821
aI837
aI889
aI1040
aI1103
aI1159
aI1184
aI1219
aI1237
aI1277
aI1286
aI1306
aI1310
aI1313
aI1376
aI1385
aI1419
aI1443
aI1517
aI1546
aI1611
aI1645
aI1698
aI1716
aI1728
aI1747
aI1780
aI1799
aI1830
aI1838
aI1861
aI1917
aI1961
aI2033
aI2049
aI2137
aI2151
aI2171
aI2189
aI2193
aI2243
aI2257
aI2381
aI2387
aI2432
aI2455
aI2467
aI2468
aI2539
aI2571
aI2583
aI2655
aI2656
aI2667
aI2705
aI2707
aI2714
aI2723
aI2739
aI2744
aI2767
aI2769
aI2772
aI2792
aI2822
aI2829
aI2834
aI2846
aI2856
aI2871
aI2911
aI2915
aI2928
aI2933
aI2962
aI2967
aI3014
asg28
Nsg29
Nsbsg8
(lp413
g10
(g14
S'?{\xd3\xe2\xfc8!\xc0'
p414
tp415
Rp416
ag10
(g14
S'\xec\xfe\x89\x00\x9e\x97D@'
p417
tp418
Rp419
asg23
Nsg25
F1.0557402424637272
sg26
Nsg28
(inode
Node
p420
(dp421
g5
(inode
Node
p422
(dp423
g5
(inode
Node
p424
(dp425
g5
Nsg8
(lp426
g10
(g14
S'\xadc\x99\xbf\xc4L!\xc0'
p427
tp428
Rp429
ag10
(g14
S'5\x0c\xde\xd5n\x98D@'
p430
tp431
Rp432
asg23
(lp433
I7
aI7
aI7
aI7
aI7
aI7
aI7
asg25
Nsg26
(lp434
I702
aI1052
aI1811
aI2106
aI2727
aI2766
aI2935
asg28
Nsg29
Nsbsg8
(lp435
g10
(g14
S'\xff&u1v<!\xc0'
p436
tp437
Rp438
ag10
(g14
S'\xc30=\xedK\x97D@'
p439
tp440
Rp441
asg23
Nsg25
F1.188665963047701
sg26
Nsg28
(inode
Node
p442
(dp443
g5
(inode
Node
p444
(dp445
g5
Nsg8
(lp446
g10
(g14
S'\xe9\x9c\x9f\xe28H!\xc0'
p447
tp448
Rp449
ag10
(g14
S'\x0f\xb7C\xc3b\x99D@'
p450
tp451
Rp452
asg23
(lp453
I8
aI8
aI8
aI8
aI8
aI8
asg25
Nsg26
(lp454
I927
aI1553
aI1923
aI1996
aI2404
aI2949
asg28
Nsg29
Nsbsg8
(lp455
g10
(g14
S'\xd0\x9e\xcb\xd4$5!\xc0'
p456
tp457
Rp458
ag10
(g14
S'\xf6\xfaIkB\x98D@'
p459
tp460
Rp461
asg23
Nsg25
F1.5885549519194213
sg26
Nsg28
(inode
Node
p462
(dp463
g5
(inode
Node
p464
(dp465
g5
Nsg8
(lp466
g10
(g14
S'\xf7\xe5\xccv\x85B!\xc0'
p467
tp468
Rp469
ag10
(g14
S'\x1a\x14\xcd\x03X\x9bD@'
p470
tp471
Rp472
asg23
(lp473
I9
aI9
asg25
Nsg26
(lp474
I269
aI2273
asg28
Nsg29
Nsbsg8
(lp475
g10
(g14
S'\xb2\x95\x981c4!\xc0'
p476
tp477
Rp478
ag10
(g14
S'\x95\x83\x01\xfc\xf4\x97D@'
p479
tp480
Rp481
asg23
Nsg25
F2.382284310620901
sg26
Nsg28
(inode
Node
p482
(dp483
g5
(inode
Node
p484
(dp485
g5
Nsg8
(lp486
g10
(g14
S'\x94\x88\xf0/\x82V!\xc0'
p487
tp488
Rp489
ag10
(g14
S'\xf9\x14\x00\xe3\x19\x9eD@'
p490
tp491
Rp492
asg23
(lp493
I10
asg25
Nsg26
(lp494
I2009
asg28
Nsg29
Nsbsg8
(lp495
g10
(g14
S'n\xaa(=W4!\xc0'
p496
tp497
Rp498
ag10
(g14
S'\x0c#\xf1\xa4\xfa\x97D@'
p499
tp500
Rp501
asg23
Nsg25
F2.828528550414466
sg26
Nsg28
(inode
Node
p502
(dp503
g5
(inode
Node
p504
(dp505
g5
Nsg8
(lp506
g10
(g14
S';\xce\x9c\x0e\x9a2!\xc0'
p507
tp508
Rp509
ag10
(g14
S'\x1fQ\xac(\x86\x97D@'
p510
tp511
Rp512
asg23
(lp513
I11
aI11
aI11
aI11
aI11
aI11
aI11
aI11
aI11
aI11
aI11
aI11
aI11
aI11
aI11
aI11
aI11
aI11
aI11
aI11
aI11
aI11
aI11
aI11
aI11
aI11
aI11
aI11
aI11
aI11
aI11
aI11
aI11
aI11
aI11
aI11
aI11
aI11
aI11
aI11
aI11
aI11
aI11
aI11
aI11
aI11
aI11
aI11
aI11
aI11
aI11
aI11
aI11
aI11
aI11
aI11
aI11
aI11
aI11
aI11
aI11
aI11
aI11
aI11
aI11
aI11
aI11
aI11
aI11
aI11
aI11
aI11
aI11
aI11
aI11
aI11
aI11
aI11
aI11
aI11
aI11
aI11
aI11
aI11
aI11
aI11
aI11
aI11
aI11
aI11
aI11
aI11
aI11
aI11
aI11
aI11
aI11
aI11
asg25
Nsg26
(lp514
I51
aI70
aI79
aI143
aI160
aI222
aI286
aI290
aI344
aI369
aI372
aI384
aI391
aI420
aI428
aI474
aI493
aI499
aI581
aI593
aI623
aI704
aI747
aI895
aI910
aI957
aI1021
aI1057
aI1059
aI1065
aI1130
aI1144
aI1150
aI1178
aI1182
aI1261
aI1274
aI1278
aI1296
aI1300
aI1319
aI1352
aI1359
aI1386
aI1390
aI1435
aI1438
aI1441
aI1491
aI1527
aI1530
aI1604
aI1638
aI1666
aI1715
aI1725
aI1777
aI1784
aI1833
aI1856
aI1862
aI1897
aI1901
aI1920
aI1927
aI1969
aI1994
aI2055
aI2115
aI2126
aI2142
aI2225
aI2253
aI2337
aI2358
aI2361
aI2376
aI2424
aI2425
aI2480
aI2500
aI2503
aI2561
aI2592
aI2653
aI2670
aI2689
aI2698
aI2703
aI2735
aI2752
aI2801
aI2881
aI2932
aI2934
aI2963
aI3008
aI3018
asg28
Nsg29
Nsbsg8
(lp515
g10
(g14
S'pD*Z\x1e4!\xc0'
p516
tp517
Rp518
ag10
(g14
S'\x0ft\x82\x9b\xf5\x97D@'
p519
tp520
Rp521
asg23
Nsg25
F1.0269419692214057
sg26
Nsg28
(inode
Node
p522
(dp523
g5
(inode
Node
p524
(dp525
g5
Nsg8
(lp526
g10
(g14
S'm\xe6\x90\xd4BA!\xc0'
p527
tp528
Rp529
ag10
(g14
S'$\xd0`S\xe7\x93D@'
p530
tp531
Rp532
asg23
(lp533
I12
asg25
Nsg26
(lp534
I280
asg28
Nsg29
Nsbsg8
(lp535
g10
(g14
S'\xb7\xae*\x9a\xb44!\xc0'
p536
tp537
Rp538
ag10
(g14
S'\xc1\xa5\xe9\xfb%\x98D@'
p539
tp540
Rp541
asg23
Nsg25
F1.037285863089077
sg26
Nsg28
(inode
Node
p542
(dp543
g5
(inode
Node
p544
(dp545
g5
Nsg8
(lp546
g10
(g14
S'\x06\x9c\xa5d9A!\xc0'
p547
tp548
Rp549
ag10
(g14
S'\xd7\x18tB\xe8\x90D@'
p550
tp551
Rp552
asg23
(lp553
I13
asg25
Nsg26
(lp554
I193
asg28
Nsg29
Nsbsg8
(lp555
g10
(g14
S'\x99f\xba\xd7I3!\xc0'
p556
tp557
Rp558
ag10
(g14
S'\xfe&L\xbf`\x98D@'
p559
tp560
Rp561
asg23
Nsg25
F1.0754692125117564
sg26
Nsg28
(inode
Node
p562
(dp563
g5
(inode
Node
p564
(dp565
g5
Nsg8
(lp566
g10
(g14
S"'\xf8e\xae\xcfC!\xc0"
p567
tp568
Rp569
ag10
(g14
S'\xbf\xc8\xc7\xad\xc7\x96D@'
p570
tp571
Rp572
asg23
(lp573
I14
aI14
aI14
aI14
aI14
aI14
aI14
asg25
Nsg26
(lp574
I383
aI475
aI1554
aI1808
aI2615
aI2863
aI2974
asg28
Nsg29
Nsbsg8
(lp575
g10
(g14
S'\xc2/[S\x0e3!\xc0'
p576
tp577
Rp578
ag10
(g14
S'\x9e2\x96\xfbc\x98D@'
p579
tp580
Rp581
asg23
Nsg25
F1.030016978185086
sg26
Nsg28
(inode
Node
p582
(dp583
g5
(inode
Node
p584
(dp585
g5
Nsg8
(lp586
g10
(g14
S'0\x8f\xf8\xd4/"!\xc0'
p587
tp588
Rp589
ag10
(g14
S'\x91\xad\xac0\xbc\x9bD@'
p590
tp591
Rp592
asg23
(lp593
I15
aI15
aI15
aI15
aI15
aI15
aI15
aI15
aI15
aI15
aI15
aI15
aI15
aI15
aI15
aI15
aI15
aI15
aI15
aI15
aI15
aI15
aI15
aI15
aI15
aI15
aI15
aI15
asg25
Nsg26
(lp594
I73
aI272
aI489
aI564
aI710
aI909
aI919
aI974
aI1015
aI1179
aI1197
aI1612
aI1762
aI1795
aI1908
aI2002
aI2025
aI2125
aI2347
aI2349
aI2357
aI2562
aI2611
aI2713
aI2742
aI2773
aI3002
aI3025
asg28
Nsg29
Nsbsg8
(lp595
g10
(g14
S'\x9b\x0f\x13r\x023!\xc0'
p596
tp597
Rp598
ag10
(g14
S'"Nj\x856\x98D@'
p599
tp600
Rp601
asg23
Nsg25
F1.0170331008995441
sg26
Nsg28
(inode
Node
p602
(dp603
g5
(inode
Node
p604
(dp605
g5
Nsg8
(lp606
g10
(g14
S'\xe5_\xb6\x83\xb3,!\xc0'
p607
tp608
Rp609
ag10
(g14
S'U\xe7\xaa\xec\x8c\x99D@'
p610
tp611
Rp612
asg23
(lp613
I16
aI16
aI16
aI16
aI16
aI16
aI16
aI16
aI16
aI16
aI16
aI16
aI16
aI16
aI16
aI16
aI16
aI16
aI16
aI16
aI16
aI16
aI16
aI16
aI16
aI16
aI16
aI16
aI16
aI16
aI16
aI16
aI16
aI16
aI16
aI16
aI16
aI16
aI16
aI16
aI16
aI16
aI16
aI16
aI16
aI16
aI16
aI16
aI16
aI16
aI16
aI16
aI16
aI16
aI16
aI16
aI16
aI16
aI16
aI16
aI16
aI16
aI16
aI16
aI16
aI16
aI16
aI16
aI16
asg25
Nsg26
(lp614
I23
aI32
aI58
aI138
aI250
aI253
aI418
aI430
aI478
aI572
aI615
aI646
aI661
aI761
aI816
aI835
aI839
aI894
aI960
aI1032
aI1170
aI1171
aI1195
aI1203
aI1217
aI1250
aI1267
aI1269
aI1322
aI1342
aI1427
aI1439
aI1528
aI1541
aI1581
aI1607
aI1609
aI1634
aI1680
aI1700
aI1741
aI1758
aI1827
aI1868
aI1885
aI1894
aI1904
aI1944
aI2001
aI2051
aI2075
aI2085
aI2102
aI2164
aI2408
aI2464
aI2565
aI2587
aI2589
aI2612
aI2688
aI2695
aI2701
aI2720
aI2726
aI2782
aI2828
aI2839
aI3017
asg28
Nsg29
Nsbsg8
(lp615
g10
(g14
S'\xf8\xc9@_A5!\xc0'
p616
tp617
Rp618
ag10
(g14
S'`\x03\xc9L\xa8\x97D@'
p619
tp620
Rp621
asg23
Nsg25
F1.0152400856855583
sg26
Nsg28
(inode
Node
p622
(dp623
g5
(inode
Node
p624
(dp625
g5
Nsg8
(lp626
g10
(g14
S'Q\xf8=rV>!\xc0'
p627
tp628
Rp629
ag10
(g14
S'\xa6\x8fR|M\x98D@'
p630
tp631
Rp632
asg23
(lp633
I17
aI17
aI17
aI17
aI17
aI17
aI17
aI17
aI17
aI17
aI17
aI17
aI17
aI17
aI17
aI17
aI17
aI17
aI17
aI17
aI17
aI17
aI17
aI17
aI17
aI17
aI17
aI17
aI17
aI17
aI17
aI17
aI17
aI17
aI17
aI17
aI17
aI17
aI17
aI17
aI17
aI17
aI17
aI17
aI17
aI17
asg25
Nsg26
(lp634
I21
aI63
aI114
aI147
aI195
aI241
aI281
aI324
aI502
aI558
aI596
aI834
aI860
aI900
aI949
aI981
aI1035
aI1058
aI1063
aI1074
aI1199
aI1481
aI1563
aI1798
aI1809
aI1968
aI1984
aI2014
aI2018
aI2031
aI2093
aI2199
aI2206
aI2293
aI2311
aI2377
aI2393
aI2506
aI2569
aI2652
aI2708
aI2712
aI2781
aI2807
aI2808
aI2996
asg28
Nsg29
Nsbsg8
(lp635
g10
(g14
S'\xa2\xb3\xcc"\x14;!\xc0'
p636
tp637
Rp638
ag10
(g14
S'\xb3T\xc1\xbf\xd7\x97D@'
p639
tp640
Rp641
asg23
Nsg25
F1.2101329900283426
sg26
Nsg28
(inode
Node
p642
(dp643
g5
Nsg8
(lp644
g10
(g14
S'\xd8\xf8\xc7\x02\xce9!\xc0'
p645
tp646
Rp647
ag10
(g14
S'f\x0c\xae\xe8\x1d\x98D@'
p648
tp649
Rp650
asg23
(lp651
I18
aI18
aI18
aI18
aI18
aI18
aI18
aI18
aI18
aI18
aI18
aI18
aI18
aI18
aI18
aI18
aI18
aI18
aI18
aI18
aI18
aI18
aI18
aI18
aI18
aI18
aI18
aI18
aI18
aI18
aI18
aI18
aI18
aI18
aI18
aI18
aI18
aI18
aI18
aI18
aI18
aI18
aI18
aI18
aI18
aI18
aI18
aI18
aI18
aI18
aI18
aI18
aI18
aI18
aI18
aI18
aI18
aI18
aI18
aI18
aI18
aI18
aI18
aI18
aI18
aI18
aI18
aI18
aI18
aI18
aI18
aI18
aI18
aI18
aI18
aI18
aI18
aI18
aI18
aI18
aI18
aI18
aI18
aI18
aI18
aI18
aI18
aI18
aI18
aI18
aI18
aI18
aI18
aI18
aI18
asg25
Nsg26
(lp652
I13
aI31
aI41
aI50
aI56
aI85
aI87
aI121
aI140
aI156
aI179
aI191
aI199
aI213
aI244
aI259
aI316
aI335
aI422
aI486
aI515
aI541
aI546
aI561
aI569
aI600
aI610
aI647
aI659
aI777
aI782
aI803
aI847
aI881
aI883
aI896
aI921
aI941
aI965
aI987
aI1127
aI1155
aI1196
aI1233
aI1291
aI1328
aI1365
aI1393
aI1448
aI1515
aI1536
aI1544
aI1560
aI1569
aI1623
aI1679
aI1684
aI1687
aI1688
aI1759
aI1768
aI1774
aI1815
aI1816
aI1851
aI1883
aI1888
aI1892
aI2064
aI2088
aI2100
aI2119
aI2124
aI2159
aI2219
aI2220
aI2271
aI2287
aI2288
aI2322
aI2331
aI2346
aI2362
aI2431
aI2463
aI2525
aI2641
aI2754
aI2788
aI2794
aI2891
aI2919
aI2927
aI2941
aI2968
asg28
Nsg29
Nsbsg29
g310
(g311
(I0
tp653
g313
tp654
Rp655
(I1
(I2
tp656
g14
I00
S'\x10\x08t&mJ!\xc0\x93\xfe^\n\x0f\x9aD@'
p657
tp658
bsbsg29
g310
(g311
(I0
tp659
g313
tp660
Rp661
(I1
(I2
tp662
g14
I00
S'>\xed\xf0\xd7dM!\xc0\x87\x8b\xdc\xd3\xd5\x99D@'
p663
tp664
bsbsg29
g310
(g311
(I0
tp665
g313
tp666
Rp667
(I1
(I2
tp668
g14
I00
S'q\x92\xe6\x8fiM!\xc0\x8d|^\xf1\xd4\x99D@'
p669
tp670
bsbsg29
g310
(g311
(I0
tp671
g313
tp672
Rp673
(I1
(I2
tp674
g14
I00
S'\x86\xc6\x13A\x9cO!\xc0\x13|\xd3\xf4\xd9\x99D@'
p675
tp676
bsbsg29
g310
(g311
(I0
tp677
g313
tp678
Rp679
(I1
(I2
tp680
g14
I00
S'\xbb\xd0\\\xa7\x91N!\xc0`\x02\xb7\xee\xe6\x99D@'
p681
tp682
bsbsg29
g310
(g311
(I0
tp683
g313
tp684
Rp685
(I1
(I2
tp686
g14
I00
S'\xf0\xdf\xbc8\xf1M!\xc0\x12\x17\x80F\xe9\x9aD@'
p687
tp688
bsbsg29
g310
(g311
(I0
tp689
g313
tp690
Rp691
(I1
(I2
tp692
g14
I00
S'\xd6U\x81Z\x0cN!\xc0\xbe\xd9\xe6\xc6\xf4\x9aD@'
p693
tp694
bsbsg29
g310
(g311
(I0
tp695
g313
tp696
Rp697
(I1
(I2
tp698
g14
I00
S'\x08\xae\xf2\x04\xc2N!\xc0$\x0c\x03\x96\\\x9bD@'
p699
tp700
bsbsg29
g310
(g311
(I0
tp701
g313
tp702
Rp703
(I1
(I2
tp704
g14
I00
S'\xeb\xe5w\x9a\xccP!\xc0\xe3\xfd\xb8\xfd\xf2\x9bD@'
p705
tp706
bsbsg29
g310
(g311
(I0
tp707
g313
tp708
Rp709
(I1
(I2
tp710
g14
I00
S'c+hZbU!\xc0\x95\xbb\xcf\xf1\xd1\x9cD@'
p711
tp712
bsbsg29
g310
(g311
(I0
tp713
g313
tp714
Rp715
(I1
(I2
tp716
g14
I00
S'\xc7J\xcc\xb3\x92V!\xc0\xd5\x08\xfdL\xbd\x9cD@'
p717
tp718
bsbsg8
(lp719
g10
(g14
S'`;H\xdcr8!\xc0'
p720
tp721
Rp722
ag10
(g14
S'\x83\x04\x87n\xf4\x97D@'
p723
tp724
Rp725
asg23
Nsg25
F1.0006809466024333
sg26
Nsg28
(inode
Node
p726
(dp727
g5
(inode
Node
p728
(dp729
g5
Nsg8
(lp730
g10
(g14
S'\xd7r\x18}\xb67!\xc0'
p731
tp732
Rp733
ag10
(g14
S'T\x847\x07k\x9dD@'
p734
tp735
Rp736
asg23
(lp737
I8
aI8
aI8
aI8
aI8
aI8
aI8
aI8
aI8
aI8
aI8
aI8
aI8
aI8
aI8
aI8
aI8
aI8
aI8
aI8
aI8
aI8
aI8
aI8
aI8
aI8
aI8
aI8
aI8
aI8
aI8
aI8
aI8
aI8
aI8
aI8
aI8
aI8
aI8
aI8
aI8
aI8
aI8
aI8
aI8
aI8
aI8
aI8
aI8
aI8
aI8
aI8
aI8
aI8
aI8
aI8
aI8
aI8
aI8
aI8
aI8
aI8
aI8
aI8
aI8
aI8
aI8
aI8
aI8
aI8
aI8
aI8
aI8
aI8
aI8
aI8
aI8
aI8
aI8
aI8
aI8
aI8
aI8
aI8
aI8
asg25
Nsg26
(lp738
I47
aI100
aI187
aI189
aI215
aI247
aI264
aI325
aI362
aI366
aI380
aI444
aI505
aI574
aI726
aI728
aI801
aI901
aI903
aI915
aI923
aI925
aI956
aI1051
aI1099
aI1111
aI1163
aI1230
aI1270
aI1280
aI1337
aI1341
aI1404
aI1432
aI1456
aI1469
aI1496
aI1539
aI1593
aI1682
aI1748
aI1767
aI1779
aI1786
aI1790
aI1950
aI1965
aI2016
aI2061
aI2063
aI2087
aI2091
aI2110
aI2130
aI2175
aI2260
aI2294
aI2305
aI2310
aI2312
aI2339
aI2342
aI2365
aI2414
aI2422
aI2435
aI2469
aI2478
aI2481
aI2496
aI2538
aI2614
aI2629
aI2642
aI2650
aI2733
aI2748
aI2762
aI2809
aI2857
aI2858
aI2869
aI2872
aI2880
aI3009
asg28
Nsg29
Nsbsg8
(lp739
g10
(g14
S'\x8d/\xdd\x1aB7!\xc0'
p740
tp741
Rp742
ag10
(g14
S'\x8f\xa9Ne\xd9\x97D@'
p743
tp744
Rp745
asg23
Nsg25
F1.0067667034431067
sg26
Nsg28
(inode
Node
p746
(dp747
g5
(inode
Node
p748
(dp749
g5
(inode
Node
p750
(dp751
g5
Nsg8
(lp752
g10
(g14
S'R\xd5\xbe\xaew9!\xc0'
p753
tp754
Rp755
ag10
(g14
S'eOH=\xf3\x99D@'
p756
tp757
Rp758
asg23
(lp759
I9
aI9
aI9
aI9
aI9
aI9
aI9
aI9
aI9
aI9
aI9
aI9
aI9
aI9
aI9
aI9
aI9
aI9
aI9
aI9
aI9
aI9
aI9
aI9
aI9
aI9
asg25
Nsg26
(lp760
I59
aI365
aI607
aI711
aI746
aI767
aI863
aI874
aI986
aI1167
aI1220
aI1251
aI1285
aI1533
aI1603
aI1863
aI2029
aI2053
aI2074
aI2094
aI2120
aI2308
aI2521
aI2527
aI2593
aI2931
asg28
Nsg29
Nsbsg8
(lp761
g10
(g14
S'\xf0\x12\x9c\xfa@4!\xc0'
p762
tp763
Rp764
ag10
(g14
S'\x81\xbc\xa2\xe2\x13\x99D@'
p765
tp766
Rp767
asg23
Nsg25
F1.855826564891838
sg26
Nsg28
(inode
Node
p768
(dp769
g5
(inode
Node
p770
(dp771
g5
Nsg8
(lp772
g10
(g14
S'\xdc\xd8\xecH\xf5-!\xc0'
p773
tp774
Rp775
ag10
(g14
S'u><K\x90\x95D@'
p776
tp777
Rp778
asg23
(lp779
I10
asg25
Nsg26
(lp780
I568
asg28
Nsg29
Nsbsg8
(lp781
g10
(g14
S'(Lg\x89\n<!\xc0'
p782
tp783
Rp784
ag10
(g14
S'\xc1\xff\xb89\xe4\x97D@'
p785
tp786
Rp787
asg23
Nsg25
F1.8779213372264612
sg26
Nsg28
(inode
Node
p788
(dp789
g5
(inode
Node
p790
(dp791
g5
Nsg8
(lp792
g10
(g14
S'\xc1%\xb8Bu:!\xc0'
p793
tp794
Rp795
ag10
(g14
S'H\x88\xd5\xa8X\x96D@'
p796
tp797
Rp798
asg23
(lp799
I11
aI11
aI11
aI11
aI11
aI11
aI11
aI11
aI11
aI11
aI11
aI11
aI11
aI11
aI11
aI11
aI11
aI11
aI11
aI11
aI11
aI11
aI11
aI11
aI11
aI11
aI11
aI11
aI11
aI11
aI11
aI11
aI11
aI11
aI11
aI11
aI11
aI11
aI11
aI11
aI11
aI11
aI11
aI11
aI11
aI11
aI11
aI11
aI11
asg25
Nsg26
(lp800
I93
aI201
aI220
aI301
aI352
aI403
aI435
aI536
aI570
aI636
aI780
aI809
aI836
aI980
aI1050
aI1069
aI1080
aI1156
aI1275
aI1284
aI1436
aI1494
aI1531
aI1793
aI1963
aI1974
aI2023
aI2133
aI2162
aI2178
aI2215
aI2229
aI2233
aI2277
aI2317
aI2356
aI2471
aI2519
aI2680
aI2681
aI2753
aI2765
aI2803
aI2840
aI2864
aI2947
aI2953
aI2975
aI2983
asg28
Nsg29
Nsbsg8
(lp801
g10
(g14
S'\xad\x11\x10\x17*;!\xc0'
p802
tp803
Rp804
ag10
(g14
S'\xe47?\xff\xa7\x98D@'
p805
tp806
Rp807
asg23
Nsg25
F2.193417574584725
sg26
Nsg28
(inode
Node
p808
(dp809
g5
(inode
Node
p810
(dp811
g5
Nsg8
(lp812
g10
(g14
S'b1\xeaZ{G!\xc0'
p813
tp814
Rp815
ag10
(g14
S'\x98\xfe\xa7\x1f\x15\x99D@'
p816
tp817
Rp818
asg23
(lp819
I12
aI12
aI12
aI12
aI12
aI12
aI12
asg25
Nsg26
(lp820
I61
aI931
aI1018
aI2089
aI2276
aI2665
aI2669
asg28
Nsg29
Nsbsg8
(lp821
g10
(g14
S'ju\xf4\xfc*;!\xc0'
p822
tp823
Rp824
ag10
(g14
S'/\x02\xa4\xb8\xa7\x99D@'
p825
tp826
Rp827
asg23
Nsg25
F2.758266616258949
sg26
Nsg28
(inode
Node
p828
(dp829
g5
(inode
Node
p830
(dp831
g5
Nsg8
(lp832
g10
(g14
S'(\x05[\xe8\tI!\xc0'
p833
tp834
Rp835
ag10
(g14
S'\xc9z\xab0\xba\x99D@'
p836
tp837
Rp838
asg23
(lp839
I13
aI13
aI13
aI13
aI13
aI13
aI13
asg25
Nsg26
(lp840
I43
aI278
aI703
aI1242
aI1387
aI1535
aI2820
asg28
Nsg29
Nsbsg8
(lp841
g10
(g14
S'6\xf0%\x91\xbe;!\xc0'
p842
tp843
Rp844
ag10
(g14
S'Y\xc3\x11\xf2\xcc\x97D@'
p845
tp846
Rp847
asg23
Nsg25
F1.000631144111814
sg26
Nsg28
(inode
Node
p848
(dp849
g5
Nsg8
(lp850
g10
(g14
S'*\xfa\xa4_\xb2:!\xc0'
p851
tp852
Rp853
ag10
(g14
S' \xbfKO\xa0\x97D@'
p854
tp855
Rp856
asg23
(lp857
I14
aI14
aI14
aI14
aI14
aI14
aI14
aI14
aI14
aI14
aI14
aI14
aI14
aI14
aI14
aI14
aI14
aI14
aI14
aI14
aI14
aI14
aI14
aI14
aI14
aI14
aI14
aI14
aI14
aI14
aI14
aI14
aI14
aI14
aI14
aI14
aI14
aI14
aI14
aI14
aI14
aI14
aI14
aI14
aI14
aI14
aI14
aI14
aI14
aI14
aI14
aI14
aI14
aI14
aI14
aI14
aI14
aI14
aI14
aI14
aI14
aI14
aI14
aI14
aI14
aI14
aI14
aI14
aI14
aI14
aI14
aI14
aI14
aI14
aI14
aI14
aI14
aI14
aI14
aI14
aI14
aI14
aI14
aI14
aI14
aI14
aI14
aI14
aI14
aI14
aI14
aI14
aI14
aI14
aI14
aI14
aI14
asg25
Nsg26
(lp858
I44
aI86
aI103
aI145
aI152
aI161
aI219
aI225
aI257
aI262
aI266
aI274
aI307
aI373
aI395
aI406
aI410
aI503
aI554
aI556
aI566
aI576
aI586
aI656
aI664
aI700
aI701
aI733
aI752
aI788
aI828
aI843
aI852
aI885
aI926
aI940
aI995
aI1025
aI1043
aI1073
aI1129
aI1133
aI1152
aI1207
aI1209
aI1223
aI1243
aI1259
aI1366
aI1394
aI1396
aI1402
aI1418
aI1431
aI1433
aI1523
aI1574
aI1599
aI1621
aI1631
aI1685
aI1697
aI1832
aI1841
aI1850
aI1864
aI1872
aI1909
aI1913
aI1952
aI1982
aI2052
aI2066
aI2069
aI2111
aI2186
aI2201
aI2292
aI2300
aI2388
aI2392
aI2417
aI2418
aI2548
aI2552
aI2591
aI2601
aI2628
aI2796
aI2849
aI2877
aI2900
aI2908
aI2955
aI2964
aI2989
aI3001
asg28
Nsg29
Nsbsg29
g310
(g311
(I0
tp859
g313
tp860
Rp861
(I1
(I2
tp862
g14
I00
S'\xd6U\x81Z\x0cN!\xc0\x9e$]3\xf9\x9aD@'
p863
tp864
bsbsg29
g310
(g311
(I0
tp865
g313
tp866
Rp867
(I1
(I2
tp868
g14
I00
S'n\xdb\xf7\xa8\xbfN!\xc0\xfee\xf7\xe4a\x9bD@'
p869
tp870
bsbsg29
g310
(g311
(I0
tp871
g313
tp872
Rp873
(I1
(I2
tp874
g14
I00
S'\x9e\x99`8\xd7P!\xc0\xc99\xb1\x87\xf6\x9bD@'
p875
tp876
bsbsg29
g310
(g311
(I0
tp877
g313
tp878
Rp879
(I1
(I2
tp880
g14
I00
S"\x9c\x17'\xbe\xdaQ!\xc0\xbc\x05\x12\x14?\x9cD@"
p881
tp882
bsbsg29
g310
(g311
(I0
tp883
g313
tp884
Rp885
(I1
(I2
tp886
g14
I00
S'Q\xd9\xb0\xa6\xb2P!\xc0\xf4N\x05\xdc\xf3\x9cD@'
p887
tp888
bsbsg8
(lp889
g10
(g14
S'a\xe4Rt\xbe7!\xc0'
p890
tp891
Rp892
ag10
(g14
S'\xafR\xa7G~\x97D@'
p893
tp894
Rp895
asg23
Nsg25
F1.0744658117560166
sg26
Nsg28
(inode
Node
p896
(dp897
g5
(inode
Node
p898
(dp899
g5
(inode
Node
p900
(dp901
g5
Nsg8
(lp902
g10
(g14
S'y[\xe9\xb5\xd9<!\xc0'
p903
tp904
Rp905
ag10
(g14
S'\x13\xf4\x17zD\x95D@'
p906
tp907
Rp908
asg23
(lp909
I10
aI10
aI10
aI10
aI10
aI10
aI10
aI10
aI10
aI10
aI10
aI10
asg25
Nsg26
(lp910
I6
aI379
aI512
aI685
aI720
aI1176
aI1381
aI1463
aI1849
aI1959
aI2236
aI2453
asg28
Nsg29
Nsbsg8
(lp911
g10
(g14
S'`$\xcfN\x859!\xc0'
p912
tp913
Rp914
ag10
(g14
S'\xcf\xbb\xef>\x1d\x98D@'
p915
tp916
Rp917
asg23
Nsg25
F1.72860384732517
sg26
Nsg28
(inode
Node
p918
(dp919
g5
(inode
Node
p920
(dp921
g5
(inode
Node
p922
(dp923
g5
Nsg8
(lp924
g10
(g14
S'\xf9.\xa5.\x19W!\xc0'
p925
tp926
Rp927
ag10
(g14
S'\xc5\x1do\xf2[\x9eD@'
p928
tp929
Rp930
asg23
(lp931
I11
asg25
Nsg26
(lp932
I1049
asg28
Nsg29
Nsbsg8
(lp933
g10
(g14
S'p\xd489&:!\xc0'
p934
tp935
Rp936
ag10
(g14
S'\xf1"\xcb\x88%\x97D@'
p937
tp938
Rp939
asg23
Nsg25
F0.8588757390678019
sg26
Nsg28
(inode
Node
p940
(dp941
g5
(inode
Node
p942
(dp943
g5
Nsg8
(lp944
g10
(g14
S'.n\xa3\x01\xbcU!\xc0'
p945
tp946
Rp947
ag10
(g14
S'\x9c\x88~m\xfd\x9dD@'
p948
tp949
Rp950
asg23
(lp951
I12
aI12
asg25
Nsg26
(lp952
I337
aI968
asg28
Nsg29
Nsbsg8
(lp953
g10
(g14
S'\x1dz4\xbb\x15;!\xc0'
p954
tp955
Rp956
ag10
(g14
S'\x07\x86o "\x98D@'
p957
tp958
Rp959
asg23
Nsg25
F0.6411023955209735
sg26
Nsg28
(inode
Node
p960
(dp961
g5
(inode
Node
p962
(dp963
g5
Nsg8
(lp964
g10
(g14
S'\xf2\xe9\xb1-\x03>!\xc0'
p965
tp966
Rp967
ag10
(g14
S'\x12\xa1\x11l\\\x93D@'
p968
tp969
Rp970
asg23
(lp971
I13
asg25
Nsg26
(lp972
I2097
asg28
Nsg29
Nsbsg8
(lp973
g10
(g14
S'\x8f\xb9\xeeTM;!\xc0'
p974
tp975
Rp976
ag10
(g14
S'\x9f\x14\x10\x8e\x15\x98D@'
p977
tp978
Rp979
asg23
Nsg25
F0.9106242059422983
sg26
Nsg28
(inode
Node
p980
(dp981
g5
(inode
Node
p982
(dp983
g5
Nsg8
(lp984
g10
(g14
S'\x9b\x02\x99\x9dEo!\xc0'
p985
tp986
Rp987
ag10
(g14
S'@l\xe9\xd1T\xa1D@'
p988
tp989
Rp990
asg23
(lp991
I14
asg25
Nsg26
(lp992
I55
asg28
Nsg29
Nsbsg8
(lp993
g10
(g14
S'\xea!\xd8$\x9b;!\xc0'
p994
tp995
Rp996
ag10
(g14
S'\xee\xa6\xdd\xfaB\x98D@'
p997
tp998
Rp999
asg23
Nsg25
F1.0019562776057591
sg26
Nsg28
(inode
Node
p1000
(dp1001
g5
(inode
Node
p1002
(dp1003
g5
Nsg8
(lp1004
g10
(g14
S'\x8c1\xb0\x8e\xe3/!\xc0'
p1005
tp1006
Rp1007
ag10
(g14
S'>[\x07\x07{\x97D@'
p1008
tp1009
Rp1010
asg23
(lp1011
I15
asg25
Nsg26
(lp1012
I2817
asg28
Nsg29
Nsbsg8
(lp1013
g10
(g14
S'\x84\x93\xce!\n;!\xc0'
p1014
tp1015
Rp1016
ag10
(g14
S'-=C\xe1\x1c\x98D@'
p1017
tp1018
Rp1019
asg23
Nsg25
F1.115891177676419
sg26
Nsg28
(inode
Node
p1020
(dp1021
g5
(inode
Node
p1022
(dp1023
g5
Nsg8
(lp1024
g10
(g14
S'1\xce\xdf\x84BT!\xc0'
p1025
tp1026
Rp1027
ag10
(g14
S'.v\xfb\xac2\x9dD@'
p1028
tp1029
Rp1030
asg23
(lp1031
I16
asg25
Nsg26
(lp1032
I598
asg28
Nsg29
Nsbsg8
(lp1033
g10
(g14
S'"\xe6\xb6\xa1\x86;!\xc0'
p1034
tp1035
Rp1036
ag10
(g14
S'\xe5\xd6m\x199\x98D@'
p1037
tp1038
Rp1039
asg23
Nsg25
F1.037116325613137
sg26
Nsg28
(inode
Node
p1040
(dp1041
g5
(inode
Node
p1042
(dp1043
g5
Nsg8
(lp1044
g10
(g14
S'}\xc7\xf0\xd8\xcfJ!\xc0'
p1045
tp1046
Rp1047
ag10
(g14
S'U\xdbM\xf0M\x9bD@'
p1048
tp1049
Rp1050
asg23
(lp1051
I17
aI17
aI17
asg25
Nsg26
(lp1052
I370
aI715
aI2586
asg28
Nsg29
Nsbsg8
(lp1053
g10
(g14
S'\x1a\x90O]\xc9;!\xc0'
p1054
tp1055
Rp1056
ag10
(g14
S'\xd8v,N\xc0\x97D@'
p1057
tp1058
Rp1059
asg23
Nsg25
F1.4406234799811208
sg26
Nsg28
(inode
Node
p1060
(dp1061
g5
(inode
Node
p1062
(dp1063
g5
Nsg8
(lp1064
g10
(g14
S'\x9f\x90\x9d\xb7\xb1A!\xc0'
p1065
tp1066
Rp1067
ag10
(g14
S'I\x85\xb1\x85 \x95D@'
p1068
tp1069
Rp1070
asg23
(lp1071
I18
asg25
Nsg26
(lp1072
I2756
asg28
Nsg29
Nsbsg8
(lp1073
g10
(g14
S'v\xa6T\x86{;!\xc0'
p1074
tp1075
Rp1076
ag10
(g14
S"'\x0fR\x9d\xbd\x97D@"
p1077
tp1078
Rp1079
asg23
Nsg25
F1.2856096369378263
sg26
Nsg28
(inode
Node
p1080
(dp1081
g5
(inode
Node
p1082
(dp1083
g5
Nsg8
(lp1084
g10
(g14
S'\x1f\xd3\xda4\xb6O!\xc0'
p1085
tp1086
Rp1087
ag10
(g14
S'9\xf3\xab9@\x98D@'
p1088
tp1089
Rp1090
asg23
(lp1091
I19
aI19
aI19
asg25
Nsg26
(lp1092
I67
aI651
aI2957
asg28
Nsg29
Nsbsg8
(lp1093
g10
(g14
S'\xc5\x03\xd8`\xa9<!\xc0'
p1094
tp1095
Rp1096
ag10
(g14
S'\x0c\x15z\x89\x8e\x97D@'
p1097
tp1098
Rp1099
asg23
Nsg25
F1.1814135886314576
sg26
Nsg28
(inode
Node
p1100
(dp1101
g5
(inode
Node
p1102
(dp1103
g5
Nsg8
(lp1104
g10
(g14
S'\xb0WXp?P!\xc0'
p1105
tp1106
Rp1107
ag10
(g14
S'\xe1\xec\xd62\x19\x98D@'
p1108
tp1109
Rp1110
asg23
(lp1111
I20
aI20
aI20
asg25
Nsg26
(lp1112
I643
aI2326
aI2836
asg28
Nsg29
Nsbsg8
(lp1113
g10
(g14
S'\x8e`u-b<!\xc0'
p1114
tp1115
Rp1116
ag10
(g14
S'\xcbf\xc7\x86\x8e\x97D@'
p1117
tp1118
Rp1119
asg23
Nsg25
F1.030934308735777
sg26
Nsg28
(inode
Node
p1120
(dp1121
g5
(inode
Node
p1122
(dp1123
g5
Nsg8
(lp1124
g10
(g14
S'\xea\xe6\xe2o{B!\xc0'
p1125
tp1126
Rp1127
ag10
(g14
S'\x1e\xc2\xf8i\xdc\x93D@'
p1128
tp1129
Rp1130
asg23
(lp1131
I21
aI21
asg25
Nsg26
(lp1132
I2046
aI2303
asg28
Nsg29
Nsbsg8
(lp1133
g10
(g14
S"\xebu'\x0fY<!\xc0"
p1134
tp1135
Rp1136
ag10
(g14
S'\xfc\xf0\xb1A\x85\x97D@'
p1137
tp1138
Rp1139
asg23
Nsg25
F1.113568345755422
sg26
Nsg28
(inode
Node
p1140
(dp1141
g5
(inode
Node
p1142
(dp1143
g5
Nsg8
(lp1144
g10
(g14
S'\xac\xa8\xc14\x0cW!\xc0'
p1145
tp1146
Rp1147
ag10
(g14
S'\x1fL\x8a\x8fO\x9eD@'
p1148
tp1149
Rp1150
asg23
(lp1151
I22
asg25
Nsg26
(lp1152
I2987
asg28
Nsg29
Nsbsg8
(lp1153
g10
(g14
S'Y\x15\xef\xbaj<!\xc0'
p1154
tp1155
Rp1156
ag10
(g14
S'\xcd\xc7\xed\xf1\x80\x97D@'
p1157
tp1158
Rp1159
asg23
Nsg25
F1.052928760894781
sg26
Nsg28
(inode
Node
p1160
(dp1161
g5
(inode
Node
p1162
(dp1163
g5
Nsg8
(lp1164
g10
(g14
S'w\xa4\xfa\xce/J!\xc0'
p1165
tp1166
Rp1167
ag10
(g14
S'\x7fM\xd6\xa8\x87\x9aD@'
p1168
tp1169
Rp1170
asg23
(lp1171
I23
aI23
aI23
asg25
Nsg26
(lp1172
I1498
aI1926
aI2297
asg28
Nsg29
Nsbsg8
(lp1173
g10
(g14
S'\xdc\xd4(\xd1\x08<!\xc0'
p1174
tp1175
Rp1176
ag10
(g14
S'\xfb\xd2\x88\x0fZ\x97D@'
p1177
tp1178
Rp1179
asg23
Nsg25
F1.1651036673707027
sg26
Nsg28
(inode
Node
p1180
(dp1181
g5
(inode
Node
p1182
(dp1183
g5
Nsg8
(lp1184
g10
(g14
S'-`\x02\xb7\xeeV!\xc0'
p1185
tp1186
Rp1187
ag10
(g14
S'\xcb\x82\x89?\x8a\x9eD@'
p1188
tp1189
Rp1190
asg23
(lp1191
I24
asg25
Nsg26
(lp1192
I1002
asg28
Nsg29
Nsbsg8
(lp1193
g10
(g14
S'\xc7|\x9f\x8e\xac;!\xc0'
p1194
tp1195
Rp1196
ag10
(g14
S'\x11.l,E\x97D@'
p1197
tp1198
Rp1199
asg23
Nsg25
F1.0577078850067339
sg26
Nsg28
(inode
Node
p1200
(dp1201
g5
(inode
Node
p1202
(dp1203
g5
Nsg8
(lp1204
g10
(g14
S'-\xb2\x9d\xef\xa7V!\xc0'
p1205
tp1206
Rp1207
ag10
(g14
S'\xf2\xb4\xfc\xc0U\x9eD@'
p1208
tp1209
Rp1210
asg23
(lp1211
I25
asg25
Nsg26
(lp1212
I2416
asg28
Nsg29
Nsbsg8
(lp1213
g10
(g14
S'6\xd0\xe5A\x9d;!\xc0'
p1214
tp1215
Rp1216
ag10
(g14
S',\x02n\xc5D\x97D@'
p1217
tp1218
Rp1219
asg23
Nsg25
F1.0001699720939923
sg26
Nsg28
(inode
Node
p1220
(dp1221
g5
(inode
Node
p1222
(dp1223
g5
Nsg8
(lp1224
g10
(g14
S'2v\xc2Kp>!\xc0'
p1225
tp1226
Rp1227
ag10
(g14
S'6z5@i\x93D@'
p1228
tp1229
Rp1230
asg23
(lp1231
I26
aI26
asg25
Nsg26
(lp1232
I1215
aI2108
asg28
Nsg29
Nsbsg8
(lp1233
g10
(g14
S'\x19\x8d\xe2\xb8V<!\xc0'
p1234
tp1235
Rp1236
ag10
(g14
S'\x8f\xd4\x11X7\x98D@'
p1237
tp1238
Rp1239
asg23
Nsg25
F1.061840705198574
sg26
Nsg28
(inode
Node
p1240
(dp1241
g5
(inode
Node
p1242
(dp1243
g5
Nsg8
(lp1244
g10
(g14
S'_\\\xaa\xd2\x16W!\xc0'
p1245
tp1246
Rp1247
ag10
(g14
S'x\x97\x8b\xf8N\x9eD@'
p1248
tp1249
Rp1250
asg23
(lp1251
I27
asg25
Nsg26
(lp1252
I1347
asg28
Nsg29
Nsbsg8
(lp1253
g10
(g14
S'\x99D\xc9\xcc\xfc<!\xc0'
p1254
tp1255
Rp1256
ag10
(g14
S'\x18\x13}A\x05\x98D@'
p1257
tp1258
Rp1259
asg23
Nsg25
F1.1769728747394892
sg26
Nsg28
(inode
Node
p1260
(dp1261
g5
(inode
Node
p1262
(dp1263
g5
Nsg8
(lp1264
g10
(g14
S'\xe1"\xf7tuG!\xc0'
p1265
tp1266
Rp1267
ag10
(g14
S'\xa9\x9f7\x15\xa9\x8eD@'
p1268
tp1269
Rp1270
asg23
(lp1271
I28
aI28
aI28
asg25
Nsg26
(lp1272
I635
aI1669
aI2043
asg28
Nsg29
Nsbsg8
(lp1273
g10
(g14
S'p\xd5S\xf1\xab<!\xc0'
p1274
tp1275
Rp1276
ag10
(g14
S'\x81\x15\x9cM\xd8\x97D@'
p1277
tp1278
Rp1279
asg23
Nsg25
F1.0290203877966073
sg26
Nsg28
(inode
Node
p1280
(dp1281
g5
(inode
Node
p1282
(dp1283
g5
Nsg8
(lp1284
g10
(g14
S')\xfe9\x16%B!\xc0'
p1285
tp1286
Rp1287
ag10
(g14
S'm\x0e!\xf8)\x98D@'
p1288
tp1289
Rp1290
asg23
(lp1291
I29
aI29
aI29
aI29
aI29
asg25
Nsg26
(lp1292
I465
aI708
aI1264
aI1934
aI2355
asg28
Nsg29
Nsbsg8
(lp1293
g10
(g14
S'\xbb8\x86=u<!\xc0'
p1294
tp1295
Rp1296
ag10
(g14
S'\xd7\xc8t\x06\x19\x98D@'
p1297
tp1298
Rp1299
asg23
Nsg25
F1.1232775590550002
sg26
Nsg28
(inode
Node
p1300
(dp1301
g5
(inode
Node
p1302
(dp1303
g5
Nsg8
(lp1304
g10
(g14
S'&\xac\x8d\xb1\x13>!\xc0'
p1305
tp1306
Rp1307
ag10
(g14
S'\xe3Tka\x16\x9cD@'
p1308
tp1309
Rp1310
asg23
(lp1311
I30
aI30
aI30
asg25
Nsg26
(lp1312
I1097
aI1336
aI2833
asg28
Nsg29
Nsbsg8
(lp1313
g10
(g14
S']nW\x91\xb7;!\xc0'
p1314
tp1315
Rp1316
ag10
(g14
S'j\x9a6a\xbe\x97D@'
p1317
tp1318
Rp1319
asg23
Nsg25
F1.613387176079753
sg26
Nsg28
(inode
Node
p1320
(dp1321
g5
(inode
Node
p1322
(dp1323
g5
Nsg8
(lp1324
g10
(g14
S'\xccD{\x9d\x1fJ!\xc0'
p1325
tp1326
Rp1327
ag10
(g14
S'\xb4\xe8\x9d\n\xb8\x99D@'
p1328
tp1329
Rp1330
asg23
(lp1331
I31
aI31
aI31
aI31
aI31
aI31
aI31
aI31
aI31
aI31
aI31
asg25
Nsg26
(lp1332
I132
aI135
aI388
aI618
aI673
aI833
aI962
aI1185
aI1479
aI1817
aI2183
asg28
Nsg29
Nsbsg8
(lp1333
g10
(g14
S'J\x91\x1b\xe4\x94;!\xc0'
p1334
tp1335
Rp1336
ag10
(g14
S'a\x90\xfe\xa1\xa3\x97D@'
p1337
tp1338
Rp1339
asg23
Nsg25
F1.366797631272236
sg26
Nsg28
(inode
Node
p1340
(dp1341
g5
Nsg8
(lp1342
g10
(g14
S'&D\xcbi\x95;!\xc0'
p1343
tp1344
Rp1345
ag10
(g14
S'\x04\xebQ\x81\xb1\x97D@'
p1346
tp1347
Rp1348
asg23
(lp1349
I32
aI32
aI32
aI32
aI32
aI32
aI32
aI32
aI32
aI32
aI32
aI32
aI32
aI32
aI32
aI32
aI32
aI32
aI32
aI32
aI32
aI32
aI32
aI32
aI32
aI32
aI32
aI32
aI32
aI32
aI32
aI32
aI32
aI32
aI32
aI32
aI32
aI32
aI32
aI32
aI32
aI32
aI32
aI32
aI32
aI32
aI32
aI32
aI32
aI32
aI32
aI32
aI32
aI32
aI32
aI32
aI32
aI32
aI32
aI32
aI32
aI32
aI32
aI32
aI32
aI32
aI32
aI32
aI32
aI32
aI32
aI32
aI32
aI32
aI32
aI32
aI32
aI32
aI32
aI32
aI32
aI32
aI32
aI32
aI32
aI32
aI32
aI32
aI32
aI32
aI32
asg25
Nsg26
(lp1350
I7
aI155
aI224
aI236
aI304
aI390
aI424
aI454
aI463
aI603
aI622
aI624
aI682
aI762
aI763
aI806
aI928
aI994
aI1010
aI1086
aI1173
aI1222
aI1228
aI1229
aI1236
aI1241
aI1260
aI1287
aI1305
aI1326
aI1335
aI1344
aI1356
aI1361
aI1362
aI1445
aI1450
aI1476
aI1501
aI1507
aI1543
aI1556
aI1573
aI1590
aI1595
aI1616
aI1622
aI1630
aI1662
aI1694
aI1750
aI1785
aI1787
aI1803
aI1819
aI1826
aI1836
aI1857
aI1867
aI1910
aI1912
aI1915
aI1970
aI2022
aI2071
aI2076
aI2083
aI2109
aI2221
aI2256
aI2298
aI2324
aI2338
aI2364
aI2476
aI2482
aI2488
aI2495
aI2511
aI2512
aI2543
aI2588
aI2620
aI2633
aI2679
aI2696
aI2716
aI2939
aI3012
aI3019
aI3028
asg28
Nsg29
Nsbsg29
g310
(g311
(I0
tp1351
g313
tp1352
Rp1353
(I1
(I2
tp1354
g14
I00
S'\t\x1b\x9e^)#!\xc0Z\x12\xa0\xa6\x96\x9dD@'
p1355
tp1356
bsbsg29
g310
(g311
(I0
tp1357
g313
tp1358
Rp1359
(I1
(I2
tp1360
g14
I00
S'?\x8fQ\x9ey!!\xc0\x8c0E\xb94\x9eD@'
p1361
tp1362
bsbsg29
g310
(g311
(I0
tp1363
g313
tp1364
Rp1365
(I1
(I2
tp1366
g14
I00
S'B\xb0\xaa^~\x1f!\xc0\xf1\xb9\x13\xec\xbf\x9eD@'
p1367
tp1368
bsbsg29
g310
(g311
(I0
tp1369
g313
tp1370
Rp1371
(I1
(I2
tp1372
g14
I00
S'y<-?p\x1d!\xc0W\x04\xff[\xc9\x9eD@'
p1373
tp1374
bsbsg29
g310
(g311
(I0
tp1375
g313
tp1376
Rp1377
(I1
(I2
tp1378
g14
I00
S'\xc0\x07\xaf]\xda !\xc0\xb7]h\xae\xd3\x9eD@'
p1379
tp1380
bsbsg29
g310
(g311
(I0
tp1381
g313
tp1382
Rp1383
(I1
(I2
tp1384
g14
I00
S'<\x17FzQ#!\xc0\xd8\xf5\x0bv\xc3\x9eD@'
p1385
tp1386
bsbsg29
g310
(g311
(I0
tp1387
g313
tp1388
Rp1389
(I1
(I2
tp1390
g14
I00
S'\x84\x81\xe7\xde\xc3%!\xc0\xab\x07\xccC\xa6\x9eD@'
p1391
tp1392
bsbsg29
g310
(g311
(I0
tp1393
g313
tp1394
Rp1395
(I1
(I2
tp1396
g14
I00
S'L\xc5\xc6\xbc\x8e(!\xc0\x85D\xda\xc6\x9f\x9eD@'
p1397
tp1398
bsbsg29
g310
(g311
(I0
tp1399
g313
tp1400
Rp1401
(I1
(I2
tp1402
g14
I00
S'-\x93\xe1x>+!\xc0\xe5)\xab\xe9z\x9eD@'
p1403
tp1404
bsbsg29
g310
(g311
(I0
tp1405
g313
tp1406
Rp1407
(I1
(I2
tp1408
g14
I00
S'\xc0\x92\xabX\xfc.!\xc0\xeb\xfdF;n\x9eD@'
p1409
tp1410
bsbsg29
g310
(g311
(I0
tp1411
g313
tp1412
Rp1413
(I1
(I2
tp1414
g14
I00
S'\xa2&\xfa|\x941!\xc0\xab\xb0\x19\xe0\x82\x9eD@'
p1415
tp1416
bsbsg29
g310
(g311
(I0
tp1417
g313
tp1418
Rp1419
(I1
(I2
tp1420
g14
I00
S'\x02G\x02\r65!\xc0\xeb\xc8\x91\xce\xc0\x9eD@'
p1421
tp1422
bsbsg29
g310
(g311
(I0
tp1423
g313
tp1424
Rp1425
(I1
(I2
tp1426
g14
I00
S'\x96\x07\xe9)r8!\xc0\xd8\xbb?\xde\xab\x9eD@'
p1427
tp1428
bsbsg29
g310
(g311
(I0
tp1429
g313
tp1430
Rp1431
(I1
(I2
tp1432
g14
I00
S'B\x96\x05\x13\x7f<!\xc0\xbe\xf77h\xaf\x9eD@'
p1433
tp1434
bsbsg29
g310
(g311
(I0
tp1435
g313
tp1436
Rp1437
(I1
(I2
tp1438
g14
I00
S'\xa2\xb6\r\xa3 @!\xc0~\x01\xbdp\xe7\x9eD@'
p1439
tp1440
bsbsg29
g310
(g311
(I0
tp1441
g313
tp1442
Rp1443
(I1
(I2
tp1444
g14
I00
S"N\xb4\xab\x90\xf2C!\xc0\xfe\x9b\x17'\xbe\x9eD@"
p1445
tp1446
bsbsg29
g310
(g311
(I0
tp1447
g313
tp1448
Rp1449
(I1
(I2
tp1450
g14
I00
S'\xc8{\xd5\xca\x84G!\xc0\x91C\xc4\xcd\xa9\x9eD@'
p1451
tp1452
bsbsg29
g310
(g311
(I0
tp1453
g313
tp1454
Rp1455
(I1
(I2
tp1456
g14
I00
S']\x1a\xbf\xf0JJ!\xc0\xbeN\xea\xcb\xd2\x9eD@'
p1457
tp1458
bsbsg29
g310
(g311
(I0
tp1459
g313
tp1460
Rp1461
(I1
(I2
tp1462
g14
I00
S'\xa6\xd6\xfb\x8dvL!\xc0x\x9c\xa2#\xb9\x9eD@'
p1463
tp1464
bsbsg29
g310
(g311
(I0
tp1465
g313
tp1466
Rp1467
(I1
(I2
tp1468
g14
I00
S'\xf2D\x10\xe7\xe1L!\xc0Q\xbc\xca\xda\xa6\x9eD@'
p1469
tp1470
bsbsg29
g310
(g311
(I0
tp1471
g313
tp1472
Rp1473
(I1
(I2
tp1474
g14
I00
S'\xbcW\xadL\xf8M!\xc0x\xee=\\r\x9eD@'
p1475
tp1476
bsbsg8
(lp1477
g10
(g14
S'"w\x1c\x14\xf55!\xc0'
p1478
tp1479
Rp1480
ag10
(g14
S'\xc1r\xfb\x14\xa0\x98D@'
p1481
tp1482
Rp1483
asg23
Nsg25
F1.067017922296283
sg26
Nsg28
(inode
Node
p1484
(dp1485
g5
(inode
Node
p1486
(dp1487
g5
Nsg8
(lp1488
g10
(g14
S'\xdfI\x89 \x8d\x14!\xc0'
p1489
tp1490
Rp1491
ag10
(g14
S'apO\x94\xc5\x9cD@'
p1492
tp1493
Rp1494
asg23
(lp1495
I12
aI12
aI12
aI12
aI12
aI12
aI12
aI12
aI12
aI12
aI12
aI12
aI12
aI12
asg25
Nsg26
(lp1496
I557
aI619
aI934
aI1084
aI1380
aI1690
aI1789
aI1886
aI2160
aI2197
aI2490
aI2547
aI2563
aI2844
asg28
Nsg29
Nsbsg8
(lp1497
g10
(g14
S'\x81\xfe\xf4\xff\xa73!\xc0'
p1498
tp1499
Rp1500
ag10
(g14
S'`0\x91h\x88\x99D@'
p1501
tp1502
Rp1503
asg23
Nsg25
F0.7585907863106682
sg26
Nsg28
(inode
Node
p1504
(dp1505
g5
(inode
Node
p1506
(dp1507
g5
Nsg8
(lp1508
g10
(g14
S'HnM\xba-9!\xc0'
p1509
tp1510
Rp1511
ag10
(g14
S'\xc67\x14>[\x93D@'
p1512
tp1513
Rp1514
asg23
(lp1515
I13
aI13
asg25
Nsg26
(lp1516
I2042
aI2925
asg28
Nsg29
Nsbsg8
(lp1517
g10
(g14
S'\x82Mh\xbaO5!\xc0'
p1518
tp1519
Rp1520
ag10
(g14
S'\x1b\x1d\x08j\x14\x98D@'
p1521
tp1522
Rp1523
asg23
Nsg25
F1.0270841735027092
sg26
Nsg28
(inode
Node
p1524
(dp1525
g5
(inode
Node
p1526
(dp1527
g5
Nsg8
(lp1528
g10
(g14
S'\xf8\xfb\xc5l\xc9:!\xc0'
p1529
tp1530
Rp1531
ag10
(g14
S'\x92\x92\x1e\x86V\x93D@'
p1532
tp1533
Rp1534
asg23
(lp1535
I14
asg25
Nsg26
(lp1536
I967
asg28
Nsg29
Nsbsg8
(lp1537
g10
(g14
S'e\x10p\xc2\xb22!\xc0'
p1538
tp1539
Rp1540
ag10
(g14
S'()\xf6\xa2%\x98D@'
p1541
tp1542
Rp1543
asg23
Nsg25
F1.3370947620427365
sg26
Nsg28
(inode
Node
p1544
(dp1545
g5
(inode
Node
p1546
(dp1547
g5
Nsg8
(lp1548
g10
(g14
S'{\xa5m~\x003!\xc0'
p1549
tp1550
Rp1551
ag10
(g14
S'\xd2\xa8\xc0\xc96\x9eD@'
p1552
tp1553
Rp1554
asg23
(lp1555
I15
aI15
aI15
aI15
aI15
aI15
aI15
asg25
Nsg26
(lp1556
I127
aI321
aI419
aI1134
aI1746
aI1751
aI2459
asg28
Nsg29
Nsbsg8
(lp1557
g10
(g14
S'O\x06gC\x812!\xc0'
p1558
tp1559
Rp1560
ag10
(g14
S'\xc5hT\xf0!\x98D@'
p1561
tp1562
Rp1563
asg23
Nsg25
F0.9373742358544846
sg26
Nsg28
(inode
Node
p1564
(dp1565
g5
(inode
Node
p1566
(dp1567
g5
Nsg8
(lp1568
g10
(g14
S'\x1a1\xb3\xcfcD!\xc0'
p1569
tp1570
Rp1571
ag10
(g14
S'\x94\xbf{G\x8d\x99D@'
p1572
tp1573
Rp1574
asg23
(lp1575
I16
asg25
Nsg26
(lp1576
I1973
asg28
Nsg29
Nsbsg8
(lp1577
g10
(g14
S'\xfd\xbf\xea\xc8Q2!\xc0'
p1578
tp1579
Rp1580
ag10
(g14
S'\tcH\x8f\xf1\x97D@'
p1581
tp1582
Rp1583
asg23
Nsg25
F1.1542855479601917
sg26
Nsg28
(inode
Node
p1584
(dp1585
g5
(inode
Node
p1586
(dp1587
g5
Nsg8
(lp1588
g10
(g14
S'\xcd\xaf\xe6\x00\xc1D!\xc0'
p1589
tp1590
Rp1591
ag10
(g14
S'\x9b\xe3\xdc&\xdc\x91D@'
p1592
tp1593
Rp1594
asg23
(lp1595
I17
asg25
Nsg26
(lp1596
I1846
asg28
Nsg29
Nsbsg8
(lp1597
g10
(g14
S'k\x9bq\xb0,2!\xc0'
p1598
tp1599
Rp1600
ag10
(g14
S'\x1d\xf8\xe9\xfd>\x98D@'
p1601
tp1602
Rp1603
asg23
Nsg25
F1.2583969485269213
sg26
Nsg28
(inode
Node
p1604
(dp1605
g5
(inode
Node
p1606
(dp1607
g5
Nsg8
(lp1608
g10
(g14
S'"XU/\xbf5!\xc0'
p1609
tp1610
Rp1611
ag10
(g14
S'\xe9-\x1e\xdes\x93D@'
p1612
tp1613
Rp1614
asg23
(lp1615
I18
aI18
aI18
aI18
asg25
Nsg26
(lp1616
I218
aI567
aI1363
aI1444
asg28
Nsg29
Nsbsg8
(lp1617
g10
(g14
S'Y\x0f\x18\x81\xa53!\xc0'
p1618
tp1619
Rp1620
ag10
(g14
S'-\x91S\x83x\x98D@'
p1621
tp1622
Rp1623
asg23
Nsg25
F1.0465550111806556
sg26
Nsg28
(inode
Node
p1624
(dp1625
g5
(inode
Node
p1626
(dp1627
g5
Nsg8
(lp1628
g10
(g14
S'\x9a\xddI\xfaj5!\xc0'
p1629
tp1630
Rp1631
ag10
(g14
S'K\xb8\xeb\x00\xe3\x9cD@'
p1632
tp1633
Rp1634
asg23
(lp1635
I19
aI19
aI19
aI19
aI19
aI19
aI19
aI19
aI19
aI19
aI19
aI19
aI19
aI19
aI19
aI19
aI19
aI19
aI19
aI19
aI19
aI19
aI19
aI19
aI19
aI19
aI19
aI19
aI19
aI19
aI19
aI19
aI19
aI19
aI19
aI19
aI19
aI19
aI19
aI19
aI19
aI19
aI19
aI19
aI19
asg25
Nsg26
(lp1636
I17
aI29
aI33
aI128
aI481
aI768
aI851
aI876
aI886
aI908
aI978
aI988
aI1004
aI1042
aI1249
aI1325
aI1333
aI1358
aI1364
aI1383
aI1487
aI1643
aI1732
aI1801
aI1845
aI1866
aI1879
aI1914
aI1924
aI1983
aI2244
aI2259
aI2379
aI2426
aI2545
aI2556
aI2619
aI2691
aI2697
aI2717
aI2797
aI2904
aI2938
aI2950
aI2995
asg28
Nsg29
Nsbsg8
(lp1637
g10
(g14
S'\xaa\x8f\xb1\x0c\x863!\xc0'
p1638
tp1639
Rp1640
ag10
(g14
S'\xb1-\xbc~\x81\x98D@'
p1641
tp1642
Rp1643
asg23
Nsg25
F1.0110045488339359
sg26
Nsg28
(inode
Node
p1644
(dp1645
g5
(inode
Node
p1646
(dp1647
g5
Nsg8
(lp1648
g10
(g14
S'\xa2\xbe\xa30\xd0@!\xc0'
p1649
tp1650
Rp1651
ag10
(g14
S'+\xf6\xf1IU\x99D@'
p1652
tp1653
Rp1654
asg23
(lp1655
I20
aI20
aI20
aI20
aI20
aI20
aI20
aI20
aI20
aI20
aI20
aI20
aI20
aI20
aI20
aI20
aI20
aI20
aI20
aI20
aI20
aI20
aI20
aI20
aI20
aI20
aI20
aI20
aI20
aI20
aI20
aI20
aI20
aI20
aI20
aI20
aI20
aI20
aI20
aI20
aI20
aI20
aI20
aI20
aI20
aI20
aI20
aI20
aI20
aI20
aI20
aI20
aI20
aI20
aI20
asg25
Nsg26
(lp1656
I65
aI104
aI109
aI232
aI292
aI371
aI393
aI494
aI504
aI520
aI617
aI731
aI757
aI822
aI841
aI865
aI933
aI1062
aI1108
aI1145
aI1165
aI1348
aI1391
aI1548
aI1566
aI1582
aI1594
aI1633
aI1658
aI1693
aI1704
aI1711
aI1735
aI1749
aI1769
aI1778
aI1881
aI1895
aI1935
aI1999
aI2060
aI2138
aI2226
aI2254
aI2302
aI2351
aI2354
aI2401
aI2491
aI2497
aI2638
aI2686
aI2693
aI2914
aI2969
asg28
Nsg29
Nsbsg8
(lp1657
g10
(g14
S'v\xa9\x17p\xae2!\xc0'
p1658
tp1659
Rp1660
ag10
(g14
S'?!2\xbeD\x97D@'
p1661
tp1662
Rp1663
asg23
Nsg25
F1.0253635582301155
sg26
Nsg28
(inode
Node
p1664
(dp1665
g5
(inode
Node
p1666
(dp1667
g5
Nsg8
(lp1668
g10
(g14
S'\xab\x9c\xb9FI\x0b!\xc0'
p1669
tp1670
Rp1671
ag10
(g14
S'q\xe7\x03\x84\x13\x9cD@'
p1672
tp1673
Rp1674
asg23
(lp1675
I21
aI21
aI21
aI21
aI21
aI21
aI21
asg25
Nsg26
(lp1676
I176
aI1072
aI1292
aI1549
aI1933
aI2296
aI2763
asg28
Nsg29
Nsbsg8
(lp1677
g10
(g14
S'\xaf\x15\x03\xbc\x038!\xc0'
p1678
tp1679
Rp1680
ag10
(g14
S'#P\xfd\x83\xc8\x97D@'
p1681
tp1682
Rp1683
asg23
Nsg25
F1.2582128855702746
sg26
Nsg28
(inode
Node
p1684
(dp1685
g5
(inode
Node
p1686
(dp1687
g5
Nsg8
(lp1688
g10
(g14
S'\xa1\xd8\n\x9a\x96@!\xc0'
p1689
tp1690
Rp1691
ag10
(g14
S'\xfec!:\x04\x94D@'
p1692
tp1693
Rp1694
asg23
(lp1695
I22
asg25
Nsg26
(lp1696
I2912
asg28
Nsg29
Nsbsg8
(lp1697
g10
(g14
S'\xea|1\xb94@!\xc0'
p1698
tp1699
Rp1700
ag10
(g14
S')\xebV\xed\xac\x97D@'
p1701
tp1702
Rp1703
asg23
Nsg25
F0.9600440297749778
sg26
Nsg28
(inode
Node
p1704
(dp1705
g5
(inode
Node
p1706
(dp1707
g5
Nsg8
(lp1708
g10
(g14
S'\xdf\xfb\x1b\xb4WW!\xc0'
p1709
tp1710
Rp1711
ag10
(g14
S'+\xbf\x0c\xc6\x88\x9eD@'
p1712
tp1713
Rp1714
asg23
(lp1715
I23
asg25
Nsg26
(lp1716
I1253
asg28
Nsg29
Nsbsg8
(lp1717
g10
(g14
S'qs*\x19\x00<!\xc0'
p1718
tp1719
Rp1720
ag10
(g14
S'\x8d\x92j\xb2\xd9\x97D@'
p1721
tp1722
Rp1723
asg23
Nsg25
F1.0862985882804088
sg26
Nsg28
(inode
Node
p1724
(dp1725
g5
(inode
Node
p1726
(dp1727
g5
Nsg8
(lp1728
g10
(g14
S"\x02\xd9\xeb\xdd\x1f'!\xc0"
p1729
tp1730
Rp1731
ag10
(g14
S'\xeb\xc4\xe5x\x05\xa2D@'
p1732
tp1733
Rp1734
asg23
(lp1735
I24
asg25
Nsg26
(lp1736
I877
asg28
Nsg29
Nsbsg8
(lp1737
g10
(g14
S'\xf69\x0bI\x88;!\xc0'
p1738
tp1739
Rp1740
ag10
(g14
S'\xa7\xc4\x96\x83\xb0\x97D@'
p1741
tp1742
Rp1743
asg23
Nsg25
F1.101323392437822
sg26
Nsg28
(inode
Node
p1744
(dp1745
g5
(inode
Node
p1746
(dp1747
g5
Nsg8
(lp1748
g10
(g14
S'\xc5\x1fE\x9d\xb9?!\xc0'
p1749
tp1750
Rp1751
ag10
(g14
S'\xfcrf\xbbB\x8fD@'
p1752
tp1753
Rp1754
asg23
(lp1755
I25
aI25
aI25
asg25
Nsg26
(lp1756
I592
aI1674
aI2161
asg28
Nsg29
Nsbsg8
(lp1757
g10
(g14
S'\xef\xb9\x0bo&<!\xc0'
p1758
tp1759
Rp1760
ag10
(g14
S'\x13\x00\xcc#\xb2\x97D@'
p1761
tp1762
Rp1763
asg23
Nsg25
F1.0586723179572144
sg26
Nsg28
(inode
Node
p1764
(dp1765
g5
(inode
Node
p1766
(dp1767
g5
Nsg8
(lp1768
g10
(g14
S'\xab\x0c\x99\xe1\xf5\x17!\xc0'
p1769
tp1770
Rp1771
ag10
(g14
S'\x04\xf9~\x0f\x03\x95D@'
p1772
tp1773
Rp1774
asg23
(lp1775
I26
aI26
aI26
aI26
aI26
aI26
aI26
aI26
aI26
aI26
asg25
Nsg26
(lp1776
I173
aI848
aI890
aI1905
aI2015
aI2035
aI2267
aI2368
aI2553
aI2980
asg28
Nsg29
Nsbsg8
(lp1777
g10
(g14
S'X\x12\xbf\x0b\x95;!\xc0'
p1778
tp1779
Rp1780
ag10
(g14
S'[\xb4\xe3D\xfa\x97D@'
p1781
tp1782
Rp1783
asg23
Nsg25
F1.0283198618880847
sg26
Nsg28
(inode
Node
p1784
(dp1785
g5
Nsg8
(lp1786
g10
(g14
S'\xbd\x1dn\xb61A!\xc0'
p1787
tp1788
Rp1789
ag10
(g14
S'\xff\xab\x1b\x1e:\x98D@'
p1790
tp1791
Rp1792
asg23
(lp1793
I27
aI27
aI27
aI27
aI27
aI27
aI27
aI27
aI27
aI27
aI27
aI27
aI27
aI27
aI27
aI27
aI27
aI27
aI27
aI27
aI27
aI27
aI27
aI27
aI27
aI27
aI27
aI27
aI27
aI27
aI27
aI27
aI27
aI27
aI27
aI27
aI27
aI27
aI27
aI27
aI27
aI27
aI27
aI27
aI27
aI27
aI27
aI27
aI27
aI27
aI27
aI27
aI27
aI27
aI27
aI27
aI27
aI27
aI27
aI27
aI27
aI27
aI27
aI27
aI27
aI27
aI27
aI27
aI27
aI27
aI27
aI27
aI27
aI27
aI27
aI27
aI27
aI27
aI27
aI27
aI27
aI27
aI27
aI27
aI27
aI27
aI27
aI27
aI27
aI27
aI27
aI27
asg25
Nsg26
(lp1794
I16
aI24
aI39
aI45
aI71
aI82
aI91
aI182
aI205
aI214
aI295
aI330
aI382
aI401
aI405
aI415
aI421
aI457
aI480
aI516
aI531
aI538
aI602
aI641
aI650
aI683
aI687
aI714
aI724
aI755
aI769
aI797
aI830
aI832
aI866
aI932
aI963
aI1005
aI1008
aI1053
aI1096
aI1104
aI1112
aI1135
aI1201
aI1245
aI1304
aI1331
aI1357
aI1415
aI1493
aI1524
aI1558
aI1570
aI1589
aI1663
aI1757
aI1766
aI1810
aI1825
aI1877
aI1896
aI1943
aI1962
aI1991
aI2010
aI2020
aI2026
aI2095
aI2096
aI2101
aI2114
aI2116
aI2222
aI2224
aI2329
aI2345
aI2359
aI2406
aI2444
aI2531
aI2549
aI2603
aI2776
aI2784
aI2816
aI2821
aI2874
aI2896
aI2897
aI2945
aI2984
asg28
Nsg29
Nsbsg29
g310
(g311
(I0
tp1795
g313
tp1796
Rp1797
(I1
(I2
tp1798
g14
I00
S'1\xb6\x10\xe4\xa0T!\xc0\x11r\xde\xff\xc7\x97D@'
p1799
tp1800
bsbsg29
g310
(g311
(I0
tp1801
g313
tp1802
Rp1803
(I1
(I2
tp1804
g14
I00
S'H\xc3)s\xf3U!\xc0\xdd@\x81w\xf2\x97D@'
p1805
tp1806
bsbsg29
g310
(g311
(I0
tp1807
g313
tp1808
Rp1809
(I1
(I2
tp1810
g14
I00
S'\xaa\x0e\xb9\x19nX!\xc0\xb0\x8c\r\xdd\xec\x97D@'
p1811
tp1812
bsbsg29
g310
(g311
(I0
tp1813
g313
tp1814
Rp1815
(I1
(I2
tp1816
g14
I00
S'yZ~\xe0*W!\xc0\x83\xa3\xe4\xd59\x98D@'
p1817
tp1818
bsbsg29
g310
(g311
(I0
tp1819
g313
tp1820
Rp1821
(I1
(I2
tp1822
g14
I00
S'\xc9\xcc\x05.\x8fU!\xc0|\xf1E{\xbc\x98D@'
p1823
tp1824
bsbsg29
g310
(g311
(I0
tp1825
g313
tp1826
Rp1827
(I1
(I2
tp1828
g14
I00
S'd\xad\xa1\xd4^T!\xc0\xc24\x0c\x1f\x11\x99D@'
p1829
tp1830
bsbsg29
g310
(g311
(I0
tp1831
g313
tp1832
Rp1833
(I1
(I2
tp1834
g14
I00
S'i\xac\xfd\x9d\xedQ!\xc0.u\x90\xd7\x83\x99D@'
p1835
tp1836
bsbsg29
g310
(g311
(I0
tp1837
g313
tp1838
Rp1839
(I1
(I2
tp1840
g14
I00
S'\xd3\xa3\xa9\x9e\xccO!\xc0-@\xdbj\xd6\x99D@'
p1841
tp1842
bsbsg29
g310
(g311
(I0
tp1843
g313
tp1844
Rp1845
(I1
(I2
tp1846
g14
I00
S'\xd2Q\x0ef\x13P!\xc0\xfa\x9a\xe5\xb2\xd1\x99D@'
p1847
tp1848
bsbsg29
g310
(g311
(I0
tp1849
g313
tp1850
Rp1851
(I1
(I2
tp1852
g14
I00
S'R`\x01L\x19P!\xc0\xb4"j\xa2\xcf\x99D@'
p1853
tp1854
bsbsg29
g310
(g311
(I0
tp1855
g313
tp1856
Rp1857
(I1
(I2
tp1858
g14
I00
S'=\x0f\xee\xce\xdaM!\xc0\xeb6\xa8\xfd\xd6\x9aD@'
p1859
tp1860
bsbsg29
g310
(g311
(I0
tp1861
g313
tp1862
Rp1863
(I1
(I2
tp1864
g14
I00
S'\x89\tj\xf8\x16N!\xc01\x06\xd6q\xfc\x9aD@'
p1865
tp1866
bsbsg29
g310
(g311
(I0
tp1867
g313
tp1868
Rp1869
(I1
(I2
tp1870
g14
I00
S'\x88HM\xbb\x98N!\xc0\xfe++MJ\x9bD@'
p1871
tp1872
bsbsg29
g310
(g311
(I0
tp1873
g313
tp1874
Rp1875
(I1
(I2
tp1876
g14
I00
S"\xecO\xe2s'P!\xc0\xb0\x01\x11\xe2\xca\x9bD@"
p1877
tp1878
bsbsg29
g310
(g311
(I0
tp1879
g313
tp1880
Rp1881
(I1
(I2
tp1882
g14
I00
S'\x84\xbd\x89!9Q!\xc0\x9c\xdc\xefP\x14\x9cD@'
p1883
tp1884
bsbsg29
g310
(g311
(I0
tp1885
g313
tp1886
Rp1887
(I1
(I2
tp1888
g14
I00
S'f\x12\xf5\x82OS!\xc0\xa8\xfd\xd6N\x94\x9cD@'
p1889
tp1890
bsbsg29
g310
(g311
(I0
tp1891
g313
tp1892
Rp1893
(I1
(I2
tp1894
g14
I00
S'\x9e\xd3,\xd0\xeeP!\xc0;\x01M\x84\r\x9dD@'
p1895
tp1896
bsbsg8
(lp1897
g10
(g14
S'\xcfx\xfe!\xf18!\xc0'
p1898
tp1899
Rp1900
ag10
(g14
S'\x04\xbe\x88\xbct\x97D@'
p1901
tp1902
Rp1903
asg23
Nsg25
F1.1178478902288105
sg26
Nsg28
(inode
Node
p1904
(dp1905
g5
(inode
Node
p1906
(dp1907
g5
(inode
Node
p1908
(dp1909
g5
Nsg8
(lp1910
g10
(g14
S'\xb1C\x93P\xd7)!\xc0'
p1911
tp1912
Rp1913
ag10
(g14
S'_\x83\xe1\xc56\x98D@'
p1914
tp1915
Rp1916
asg23
(lp1917
I11
aI11
aI11
aI11
aI11
aI11
aI11
aI11
aI11
aI11
aI11
aI11
aI11
asg25
Nsg26
(lp1918
I62
aI192
aI870
aI1031
aI1141
aI1646
aI1703
aI2247
aI2466
aI2559
aI2671
aI2785
aI3004
asg28
Nsg29
Nsbsg8
(lp1919
g10
(g14
S'\xc2\x18:\x1fG?!\xc0'
p1920
tp1921
Rp1922
ag10
(g14
S'P\x9c\xebCf\x98D@'
p1923
tp1924
Rp1925
asg23
Nsg25
F1.594530018694015
sg26
Nsg28
(inode
Node
p1926
(dp1927
g5
(inode
Node
p1928
(dp1929
g5
Nsg8
(lp1930
g10
(g14
S'R\xd7\xda\xfbT=!\xc0'
p1931
tp1932
Rp1933
ag10
(g14
S'5\x99\xf1\xb6\xd2\x97D@'
p1934
tp1935
Rp1936
asg23
(lp1937
I12
aI12
aI12
asg25
Nsg26
(lp1938
I1422
aI1802
aI2737
asg28
Nsg29
Nsbsg8
(lp1939
g10
(g14
S'\xe4\x10\x93\xe8L=!\xc0'
p1940
tp1941
Rp1942
ag10
(g14
S'\xa9\xc3\xc6\xcc7\x98D@'
p1943
tp1944
Rp1945
asg23
Nsg25
F1.0286294736949975
sg26
Nsg28
(inode
Node
p1946
(dp1947
g5
(inode
Node
p1948
(dp1949
g5
Nsg8
(lp1950
g10
(g14
S'\x93ze\xc1M7!\xc0'
p1951
tp1952
Rp1953
ag10
(g14
S'n\x90\x0c\xf8z\x98D@'
p1954
tp1955
Rp1956
asg23
(lp1957
I13
aI13
aI13
aI13
aI13
aI13
aI13
aI13
aI13
aI13
aI13
aI13
aI13
aI13
aI13
aI13
aI13
aI13
aI13
aI13
aI13
aI13
aI13
aI13
aI13
aI13
aI13
aI13
aI13
aI13
aI13
aI13
aI13
aI13
aI13
aI13
aI13
aI13
aI13
aI13
aI13
aI13
aI13
aI13
aI13
aI13
aI13
aI13
aI13
asg25
Nsg26
(lp1958
I149
aI168
aI361
aI443
aI460
aI491
aI582
aI583
aI713
aI798
aI826
aI1003
aI1011
aI1041
aI1044
aI1100
aI1126
aI1189
aI1295
aI1298
aI1329
aI1373
aI1483
aI1510
aI1635
aI1636
aI1730
aI1791
aI1884
aI1936
aI1953
aI1955
aI1997
aI2012
aI2141
aI2177
aI2203
aI2333
aI2360
aI2386
aI2454
aI2524
aI2536
aI2661
aI2725
aI2799
aI2824
aI2909
aI3013
asg28
Nsg29
Nsbsg8
(lp1959
g10
(g14
S'\x00\xf6\x1b7F<!\xc0'
p1960
tp1961
Rp1962
ag10
(g14
S'\xda\x05\xde$a\x97D@'
p1963
tp1964
Rp1965
asg23
Nsg25
F1.2868088160498736
sg26
Nsg28
(inode
Node
p1966
(dp1967
g5
Nsg8
(lp1968
g10
(g14
S'0\xbdr\xf1i?!\xc0'
p1969
tp1970
Rp1971
ag10
(g14
S'\xe9\xfc\xbd\xfa\x9f\x96D@'
p1972
tp1973
Rp1974
asg23
(lp1975
I14
aI14
aI14
aI14
aI14
aI14
aI14
aI14
aI14
aI14
aI14
aI14
aI14
aI14
aI14
aI14
aI14
aI14
aI14
aI14
aI14
aI14
aI14
aI14
aI14
aI14
aI14
aI14
aI14
aI14
aI14
aI14
aI14
aI14
aI14
aI14
aI14
aI14
aI14
aI14
aI14
aI14
aI14
aI14
aI14
aI14
aI14
aI14
aI14
aI14
aI14
aI14
aI14
aI14
aI14
aI14
aI14
aI14
aI14
aI14
aI14
aI14
aI14
aI14
aI14
aI14
aI14
aI14
aI14
aI14
asg25
Nsg26
(lp1976
I38
aI116
aI146
aI158
aI171
aI200
aI270
aI310
aI333
aI407
aI423
aI616
aI638
aI688
aI766
aI771
aI784
aI790
aI1017
aI1081
aI1083
aI1095
aI1122
aI1198
aI1235
aI1262
aI1276
aI1382
aI1472
aI1485
aI1492
aI1592
aI1640
aI1653
aI1705
aI1712
aI1731
aI1737
aI1852
aI1939
aI2003
aI2007
aI2041
aI2062
aI2149
aI2168
aI2323
aI2327
aI2341
aI2383
aI2400
aI2433
aI2441
aI2526
aI2632
aI2651
aI2659
aI2676
aI2711
aI2751
aI2758
aI2764
aI2768
aI2775
aI2917
aI2923
aI2926
aI2954
aI2988
aI2990
asg28
Nsg29
Nsbsg29
g310
(g311
(I0
tp1977
g313
tp1978
Rp1979
(I1
(I2
tp1980
g14
I00
S'\xef;\x86\xc7~N!\xc0\xb9\xa5\xd5\x90\xb8\x9dD@'
p1981
tp1982
bsbsg29
g310
(g311
(I0
tp1983
g313
tp1984
Rp1985
(I1
(I2
tp1986
g14
I00
S'\x06\xb8 [\x96O!\xc0\x81\nG\x90J\x9dD@'
p1987
tp1988
bsbsg29
g310
(g311
(I0
tp1989
g313
tp1990
Rp1991
(I1
(I2
tp1992
g14
I00
S'\x9d\xd8C\xfbXQ!\xc0G\xc6j\xf3\xff\x9cD@'
p1993
tp1994
bsbsg8
(lp1995
g10
(g14
S'\x1d\xfc\x03\xf3\x9a7!\xc0'
p1996
tp1997
Rp1998
ag10
(g14
S'x\x04m\xfc\xe9\x97D@'
p1999
tp2000
Rp2001
asg23
Nsg25
F1.2580313575360893
sg26
Nsg28
(inode
Node
p2002
(dp2003
g5
(inode
Node
p2004
(dp2005
g5
Nsg8
(lp2006
g10
(g14
S'Z\x98\xd0P\x1a,!\xc0'
p2007
tp2008
Rp2009
ag10
(g14
S'\x13\xdb\x0b\x07\x06\x98D@'
p2010
tp2011
Rp2012
asg23
(lp2013
I12
aI12
aI12
aI12
aI12
aI12
aI12
aI12
aI12
aI12
aI12
aI12
aI12
aI12
aI12
aI12
aI12
aI12
aI12
aI12
aI12
aI12
aI12
aI12
aI12
aI12
aI12
aI12
aI12
aI12
aI12
aI12
aI12
aI12
aI12
aI12
aI12
aI12
aI12
aI12
aI12
aI12
aI12
aI12
aI12
aI12
aI12
aI12
aI12
aI12
aI12
aI12
aI12
aI12
aI12
asg25
Nsg26
(lp2014
I53
aI141
aI209
aI226
aI255
aI303
aI434
aI496
aI511
aI591
aI631
aI692
aI727
aI774
aI776
aI779
aI789
aI807
aI812
aI913
aI982
aI1037
aI1266
aI1484
aI1490
aI1518
aI1520
aI1532
aI1540
aI1615
aI1745
aI1756
aI1797
aI1902
aI2070
aI2081
aI2129
aI2132
aI2148
aI2150
aI2166
aI2217
aI2405
aI2493
aI2530
aI2604
aI2660
aI2719
aI2728
aI2736
aI2740
aI2745
aI2761
aI2966
aI3021
asg28
Nsg29
Nsbsg8
(lp2015
g10
(g14
S'j\x91\xa1\x9243!\xc0'
p2016
tp2017
Rp2018
ag10
(g14
S'\xeb\xf4\xe0^\xda\x98D@'
p2019
tp2020
Rp2021
asg23
Nsg25
F1.0180258739787922
sg26
Nsg28
(inode
Node
p2022
(dp2023
g5
(inode
Node
p2024
(dp2025
g5
Nsg8
(lp2026
g10
(g14
S'ACC\x1c\x1d@!\xc0'
p2027
tp2028
Rp2029
ag10
(g14
S'"5\xde;g\x9bD@'
p2030
tp2031
Rp2032
asg23
(lp2033
I13
aI13
aI13
aI13
aI13
aI13
aI13
aI13
aI13
aI13
aI13
aI13
aI13
aI13
aI13
aI13
aI13
aI13
aI13
aI13
aI13
aI13
aI13
aI13
aI13
aI13
aI13
aI13
aI13
aI13
aI13
aI13
aI13
aI13
aI13
aI13
aI13
aI13
aI13
aI13
aI13
aI13
aI13
aI13
aI13
aI13
aI13
aI13
aI13
aI13
aI13
aI13
aI13
aI13
aI13
aI13
aI13
aI13
aI13
aI13
aI13
aI13
aI13
aI13
aI13
aI13
aI13
aI13
aI13
aI13
aI13
aI13
aI13
aI13
aI13
aI13
aI13
aI13
aI13
aI13
aI13
aI13
aI13
aI13
aI13
aI13
aI13
aI13
aI13
aI13
aI13
aI13
aI13
aI13
aI13
asg25
Nsg26
(lp2034
I4
aI18
aI77
aI102
aI113
aI148
aI150
aI157
aI183
aI211
aI227
aI243
aI249
aI298
aI302
aI314
aI354
aI414
aI441
aI445
aI456
aI470
aI490
aI510
aI540
aI575
aI594
aI668
aI681
aI729
aI815
aI853
aI891
aI938
aI951
aI976
aI1016
aI1045
aI1079
aI1090
aI1109
aI1160
aI1211
aI1216
aI1282
aI1355
aI1408
aI1414
aI1478
aI1482
aI1486
aI1499
aI1624
aI1678
aI1717
aI1814
aI1876
aI1907
aI1918
aI1957
aI1975
aI2038
aI2047
aI2086
aI2117
aI2128
aI2143
aI2154
aI2184
aI2240
aI2258
aI2285
aI2295
aI2343
aI2348
aI2395
aI2407
aI2448
aI2450
aI2492
aI2546
aI2577
aI2590
aI2596
aI2643
aI2645
aI2646
aI2755
aI2795
aI2800
aI2812
aI2883
aI2921
aI2948
aI2999
asg28
Nsg29
Nsbsg8
(lp2035
g10
(g14
S'\x9e\x14\xcce\x967!\xc0'
p2036
tp2037
Rp2038
ag10
(g14
S'\xd5\xba\x16\x08\xa3\x99D@'
p2039
tp2040
Rp2041
asg23
Nsg25
F1.0143964729579662
sg26
Nsg28
(inode
Node
p2042
(dp2043
g5
(inode
Node
p2044
(dp2045
g5
Nsg8
(lp2046
g10
(g14
S'\x9b\xeeuR_6!\xc0'
p2047
tp2048
Rp2049
ag10
(g14
S'J\xae.\xb0j\x99D@'
p2050
tp2051
Rp2052
asg23
(lp2053
I14
aI14
aI14
aI14
aI14
aI14
aI14
aI14
aI14
aI14
aI14
aI14
aI14
aI14
aI14
aI14
aI14
aI14
aI14
aI14
aI14
aI14
aI14
aI14
aI14
aI14
aI14
aI14
aI14
aI14
aI14
aI14
aI14
aI14
aI14
aI14
aI14
aI14
aI14
aI14
aI14
asg25
Nsg26
(lp2054
I1
aI75
aI208
aI282
aI311
aI332
aI437
aI534
aI606
aI612
aI629
aI653
aI654
aI676
aI706
aI754
aI786
aI810
aI857
aI1137
aI1205
aI1213
aI1428
aI1480
aI1585
aI1659
aI1719
aI1804
aI1898
aI2205
aI2396
aI2403
aI2502
aI2528
aI2572
aI2610
aI2613
aI2627
aI2811
aI2985
aI3016
asg28
Nsg29
Nsbsg8
(lp2055
g10
(g14
S'\xba\x1d\xcf\xd5\xc85!\xc0'
p2056
tp2057
Rp2058
ag10
(g14
S'-\x9d\xae\xa6\xab\x98D@'
p2059
tp2060
Rp2061
asg23
Nsg25
F1.03103070020274
sg26
Nsg28
(inode
Node
p2062
(dp2063
g5
(inode
Node
p2064
(dp2065
g5
Nsg8
(lp2066
g10
(g14
S'\xd4\xf6\x83C\x05@!\xc0'
p2067
tp2068
Rp2069
ag10
(g14
S'5Y\xee\xf8\xed\x96D@'
p2070
tp2071
Rp2072
asg23
(lp2073
I15
aI15
aI15
aI15
aI15
aI15
aI15
aI15
aI15
aI15
aI15
aI15
aI15
aI15
aI15
aI15
aI15
aI15
aI15
aI15
aI15
aI15
aI15
aI15
aI15
aI15
aI15
aI15
aI15
aI15
aI15
aI15
aI15
aI15
aI15
aI15
aI15
aI15
aI15
aI15
aI15
aI15
aI15
aI15
asg25
Nsg26
(lp2074
I263
aI327
aI440
aI483
aI539
aI565
aI585
aI589
aI741
aI764
aI805
aI1014
aI1077
aI1247
aI1308
aI1349
aI1395
aI1403
aI1474
aI1626
aI1654
aI1854
aI1940
aI1980
aI2027
aI2065
aI2163
aI2195
aI2204
aI2214
aI2234
aI2238
aI2255
aI2363
aI2410
aI2436
aI2605
aI2704
aI2746
aI2804
aI2854
aI2894
aI2905
aI2918
asg28
Nsg29
Nsbsg8
(lp2075
g10
(g14
S'\xcf`\xb1XS7!\xc0'
p2076
tp2077
Rp2078
ag10
(g14
S'\xbe\xcbL6\x8c\x98D@'
p2079
tp2080
Rp2081
asg23
Nsg25
F1.113977640060193
sg26
Nsg28
(inode
Node
p2082
(dp2083
g5
(inode
Node
p2084
(dp2085
g5
Nsg8
(lp2086
g10
(g14
S'\x948+\xa2&(!\xc0'
p2087
tp2088
Rp2089
ag10
(g14
S'\xc4\xf9\x9bP\x08\x9cD@'
p2090
tp2091
Rp2092
asg23
(lp2093
I16
aI16
aI16
aI16
aI16
aI16
aI16
aI16
aI16
aI16
aI16
aI16
aI16
aI16
aI16
aI16
aI16
aI16
aI16
aI16
aI16
aI16
aI16
aI16
aI16
aI16
aI16
aI16
aI16
aI16
aI16
aI16
aI16
aI16
aI16
aI16
asg25
Nsg26
(lp2094
I19
aI25
aI119
aI125
aI268
aI346
aI389
aI411
aI433
aI662
aI1022
aI1076
aI1114
aI1162
aI1232
aI1263
aI1294
aI1330
aI1452
aI1475
aI1738
aI1776
aI1822
aI1878
aI2017
aI2191
aI2269
aI2315
aI2316
aI2438
aI2529
aI2532
aI2747
aI2779
aI3011
aI3027
asg28
Nsg29
Nsbsg8
(lp2095
g10
(g14
S'\xd7\x89\x08l`5!\xc0'
p2096
tp2097
Rp2098
ag10
(g14
S'\x8e!hV|\x98D@'
p2099
tp2100
Rp2101
asg23
Nsg25
F1.0925679634195409
sg26
Nsg28
(inode
Node
p2102
(dp2103
g5
(inode
Node
p2104
(dp2105
g5
Nsg8
(lp2106
g10
(g14
S'\xb6\xfd\xad\xa1\x15>!\xc0'
p2107
tp2108
Rp2109
ag10
(g14
S'i\xb2\xc0\xd9\xea\x99D@'
p2110
tp2111
Rp2112
asg23
(lp2113
I17
aI17
aI17
aI17
aI17
aI17
aI17
aI17
aI17
aI17
aI17
aI17
aI17
aI17
asg25
Nsg26
(lp2114
I74
aI126
aI601
aI718
aI958
aI1039
aI1240
aI1293
aI1323
aI1368
aI1710
aI2036
aI2649
aI2879
asg28
Nsg29
Nsbsg8
(lp2115
g10
(g14
S'\xbd\x87\x87\xa7{7!\xc0'
p2116
tp2117
Rp2118
ag10
(g14
S'8\xa1\xce\x90\x8f\x98D@'
p2119
tp2120
Rp2121
asg23
Nsg25
F1.0159075521799321
sg26
Nsg28
(inode
Node
p2122
(dp2123
g5
(inode
Node
p2124
(dp2125
g5
Nsg8
(lp2126
g10
(g14
S'\xc9W\xb5W\xd2)!\xc0'
p2127
tp2128
Rp2129
ag10
(g14
S'\xb9\xbb\x1bX\xdb\x99D@'
p2130
tp2131
Rp2132
asg23
(lp2133
I18
aI18
aI18
aI18
aI18
aI18
aI18
aI18
aI18
aI18
aI18
aI18
aI18
aI18
aI18
aI18
aI18
aI18
aI18
aI18
aI18
aI18
aI18
aI18
aI18
aI18
aI18
aI18
aI18
aI18
aI18
aI18
aI18
aI18
asg25
Nsg26
(lp2134
I88
aI107
aI230
aI242
aI285
aI308
aI387
aI509
aI674
aI689
aI732
aI751
aI916
aI1153
aI1180
aI1183
aI1272
aI1346
aI1502
aI1512
aI1516
aI1534
aI1692
aI1946
aI2092
aI2139
aI2167
aI2249
aI2301
aI2320
aI2557
aI2673
aI2895
aI2910
asg28
Nsg29
Nsbsg8
(lp2135
g10
(g14
S'}\x95\xfeb\xf75!\xc0'
p2136
tp2137
Rp2138
ag10
(g14
S'\x16\x9ez-y\x98D@'
p2139
tp2140
Rp2141
asg23
Nsg25
F1.2344393544574412
sg26
Nsg28
(inode
Node
p2142
(dp2143
g5
(inode
Node
p2144
(dp2145
g5
Nsg8
(lp2146
g10
(g14
S'82\x8f\xfc\xc1 !\xc0'
p2147
tp2148
Rp2149
ag10
(g14
S'\x82\x01\x84\x0f%\xa0D@'
p2150
tp2151
Rp2152
asg23
(lp2153
I19
aI19
aI19
asg25
Nsg26
(lp2154
I3
aI1143
aI2666
asg28
Nsg29
Nsbsg8
(lp2155
g10
(g14
S'\xec\xd8>`l7!\xc0'
p2156
tp2157
Rp2158
ag10
(g14
S'\xa9\xfa\xf6\xbeG\x98D@'
p2159
tp2160
Rp2161
asg23
Nsg25
F1.0003792356006007
sg26
Nsg28
(inode
Node
p2162
(dp2163
g5
(inode
Node
p2164
(dp2165
g5
Nsg8
(lp2166
g10
(g14
S'e1\xb1\xf9\xb8H!\xc0'
p2167
tp2168
Rp2169
ag10
(g14
S';\xa9/K\xfb\x96D@'
p2170
tp2171
Rp2172
asg23
(lp2173
I20
aI20
aI20
aI20
aI20
aI20
aI20
aI20
aI20
aI20
aI20
aI20
aI20
aI20
aI20
aI20
aI20
aI20
aI20
aI20
aI20
aI20
aI20
aI20
asg25
Nsg26
(lp2174
I66
aI89
aI92
aI197
aI328
aI508
aI645
aI712
aI845
aI1093
aI1166
aI1430
aI1473
aI1661
aI1702
aI1871
aI2024
aI2030
aI2058
aI2082
aI2477
aI2916
aI2979
aI3015
asg28
Nsg29
Nsbsg8
(lp2175
g10
(g14
S'\x9c3\xa2\xb474!\xc0'
p2176
tp2177
Rp2178
ag10
(g14
S':\xd3oP\xe0\x97D@'
p2179
tp2180
Rp2181
asg23
Nsg25
F1.0649203156402574
sg26
Nsg28
(inode
Node
p2182
(dp2183
g5
(inode
Node
p2184
(dp2185
g5
Nsg8
(lp2186
g10
(g14
S'p\xaa\x96\xbfn7!\xc0'
p2187
tp2188
Rp2189
ag10
(g14
S'\x82\xd6:\xdb\x84\x96D@'
p2190
tp2191
Rp2192
asg23
(lp2193
I21
aI21
aI21
aI21
aI21
aI21
aI21
aI21
aI21
aI21
aI21
asg25
Nsg26
(lp2194
I15
aI54
aI819
aI1695
aI1874
aI2045
aI2268
aI2457
aI2509
aI2810
aI2920
asg28
Nsg29
Nsbsg8
(lp2195
g10
(g14
S'1\x85\xcbGk3!\xc0'
p2196
tp2197
Rp2198
ag10
(g14
S'\xa9\xa9-\xf4\xcc\x97D@'
p2199
tp2200
Rp2201
asg23
Nsg25
F1.0707456488729237
sg26
Nsg28
(inode
Node
p2202
(dp2203
g5
(inode
Node
p2204
(dp2205
g5
Nsg8
(lp2206
g10
(g14
S'_\xf0\xc4\x07\xd1E!\xc0'
p2207
tp2208
Rp2209
ag10
(g14
S'\xb2\x1b\x11\xe7<\x98D@'
p2210
tp2211
Rp2212
asg23
(lp2213
I22
aI22
aI22
aI22
aI22
asg25
Nsg26
(lp2214
I620
aI856
aI1068
aI1903
aI2771
asg28
Nsg29
Nsbsg8
(lp2215
g10
(g14
S'\xf2\x0e\x11?\x8d4!\xc0'
p2216
tp2217
Rp2218
ag10
(g14
S'\x99\xd3?\xa2\x1a\x97D@'
p2219
tp2220
Rp2221
asg23
Nsg25
F1.1977356905717351
sg26
Nsg28
(inode
Node
p2222
(dp2223
g5
(inode
Node
p2224
(dp2225
g5
Nsg8
(lp2226
g10
(g14
S'\xc8@\x9e]\xbeC!\xc0'
p2227
tp2228
Rp2229
ag10
(g14
S'\xa2y\x00\x8b|\x99D@'
p2230
tp2231
Rp2232
asg23
(lp2233
I23
aI23
aI23
aI23
asg25
Nsg26
(lp2234
I12
aI695
aI1138
aI2321
asg28
Nsg29
Nsbsg8
(lp2235
g10
(g14
S'1"v\xe9\xea2!\xc0'
p2236
tp2237
Rp2238
ag10
(g14
S'\xb7\x81\\q\x95\x98D@'
p2239
tp2240
Rp2241
asg23
Nsg25
F1.4447381285101895
sg26
Nsg28
(inode
Node
p2242
(dp2243
g5
(inode
Node
p2244
(dp2245
g5
Nsg8
(lp2246
g10
(g14
S'\xf9.\xa5.\x19W!\xc0'
p2247
tp2248
Rp2249
ag10
(g14
S'\xc5\x1do\xf2[\x9eD@'
p2250
tp2251
Rp2252
asg23
(lp2253
I24
asg25
Nsg26
(lp2254
I353
asg28
Nsg29
Nsbsg8
(lp2255
g10
(g14
S'M?\x97_\xbc2!\xc0'
p2256
tp2257
Rp2258
ag10
(g14
S'\x01\x04HJ\x92\x98D@'
p2259
tp2260
Rp2261
asg23
Nsg25
F1.5367076758984035
sg26
Nsg28
(inode
Node
p2262
(dp2263
g5
(inode
Node
p2264
(dp2265
g5
Nsg8
(lp2266
g10
(g14
S'\xa4G\x7f\xa6\xc8B!\xc0'
p2267
tp2268
Rp2269
ag10
(g14
S'Uyy\xa4\xa2\x96D@'
p2270
tp2271
Rp2272
asg23
(lp2273
I25
aI25
aI25
aI25
aI25
aI25
aI25
aI25
aI25
aI25
aI25
asg25
Nsg26
(lp2274
I166
aI202
aI587
aI772
aI1033
aI1252
aI1465
aI1752
aI2006
aI2683
aI2790
asg28
Nsg29
Nsbsg8
(lp2275
g10
(g14
S'\xc31\xf6\xb8\xa92!\xc0'
p2276
tp2277
Rp2278
ag10
(g14
S'\xaeZ\xe8`\xa8\x98D@'
p2279
tp2280
Rp2281
asg23
Nsg25
F1.2615105700260636
sg26
Nsg28
(inode
Node
p2282
(dp2283
g5
(inode
Node
p2284
(dp2285
g5
Nsg8
(lp2286
g10
(g14
S'P=-\x9a)@!\xc0'
p2287
tp2288
Rp2289
ag10
(g14
S'\xa5\xb5\x0e\xb3<\x96D@'
p2290
tp2291
Rp2292
asg23
(lp2293
I26
aI26
aI26
aI26
aI26
asg25
Nsg26
(lp2294
I887
aI914
aI1256
aI1345
aI1401
asg28
Nsg29
Nsbsg8
(lp2295
g10
(g14
S'\x83\xc9\xf7m\xd31!\xc0'
p2296
tp2297
Rp2298
ag10
(g14
S'\x02\x8fP~\xbe\x98D@'
p2299
tp2300
Rp2301
asg23
Nsg25
F1.589563739183172
sg26
Nsg28
(inode
Node
p2302
(dp2303
g5
(inode
Node
p2304
(dp2305
g5
Nsg8
(lp2306
g10
(g14
S'\xf0\x07M\\\xd8D!\xc0'
p2307
tp2308
Rp2309
ag10
(g14
S'v\x97\x1f\x13\x84\x92D@'
p2310
tp2311
Rp2312
asg23
(lp2313
I27
aI27
aI27
aI27
aI27
asg25
Nsg26
(lp2314
I130
aI813
aI1238
aI1407
aI2443
asg28
Nsg29
Nsbsg8
(lp2315
g10
(g14
S'\x96\x1bj\xb6P4!\xc0'
p2316
tp2317
Rp2318
ag10
(g14
S'\xf8\rv`c\x98D@'
p2319
tp2320
Rp2321
asg23
Nsg25
F1.0206314133518624
sg26
Nsg28
(inode
Node
p2322
(dp2323
g5
(inode
Node
p2324
(dp2325
g5
Nsg8
(lp2326
g10
(g14
S'\x14\x97\xe3\x15\x88V!\xc0'
p2327
tp2328
Rp2329
ag10
(g14
S"\x99\xf5b('\x9eD@"
p2330
tp2331
Rp2332
asg23
(lp2333
I28
asg25
Nsg26
(lp2334
I1067
asg28
Nsg29
Nsbsg8
(lp2335
g10
(g14
S'Aa\xbd\xfbi3!\xc0'
p2336
tp2337
Rp2338
ag10
(g14
S'JM\x8cNf\x98D@'
p2339
tp2340
Rp2341
asg23
Nsg25
F1.1344548663094638
sg26
Nsg28
(inode
Node
p2342
(dp2343
g5
(inode
Node
p2344
(dp2345
g5
Nsg8
(lp2346
g10
(g14
S'{\x8e\x8b)\xd64!\xc0'
p2347
tp2348
Rp2349
ag10
(g14
S'\x01\x859\xbf$\x9cD@'
p2350
tp2351
Rp2352
asg23
(lp2353
I29
aI29
aI29
aI29
aI29
aI29
aI29
asg25
Nsg26
(lp2354
I188
aI917
aI1426
aI1454
aI1464
aI1628
aI1995
asg28
Nsg29
Nsbsg8
(lp2355
g10
(g14
S'\xb3\xe38\x91I3!\xc0'
p2356
tp2357
Rp2358
ag10
(g14
S'b;\xc4\xb9#\x98D@'
p2359
tp2360
Rp2361
asg23
Nsg25
F1.006534412198139
sg26
Nsg28
(inode
Node
p2362
(dp2363
g5
(inode
Node
p2364
(dp2365
g5
Nsg8
(lp2366
g10
(g14
S'\x1a1\xb3\xcfcD!\xc0'
p2367
tp2368
Rp2369
ag10
(g14
S'\x94\xbf{G\x8d\x99D@'
p2370
tp2371
Rp2372
asg23
(lp2373
I30
asg25
Nsg26
(lp2374
I1765
asg28
Nsg29
Nsbsg8
(lp2375
g10
(g14
S'A \x99t\xf72!\xc0'
p2376
tp2377
Rp2378
ag10
(g14
S'l\x18\xa1\xa2\x03\x98D@'
p2379
tp2380
Rp2381
asg23
Nsg25
F1.4022418786004973
sg26
Nsg28
(inode
Node
p2382
(dp2383
g5
(inode
Node
p2384
(dp2385
g5
Nsg8
(lp2386
g10
(g14
S'2\xbe\xd4t\xe2G!\xc0'
p2387
tp2388
Rp2389
ag10
(g14
S'34\xf9\xc1T\x9aD@'
p2390
tp2391
Rp2392
asg23
(lp2393
I31
aI31
aI31
aI31
aI31
asg25
Nsg26
(lp2394
I597
aI1125
aI1987
aI2684
aI2902
asg28
Nsg29
Nsbsg8
(lp2395
g10
(g14
S'5\xf5P\x04/2!\xc0'
p2396
tp2397
Rp2398
ag10
(g14
S'\xbeu\xe4n:\x98D@'
p2399
tp2400
Rp2401
asg23
Nsg25
F1.0475771813385564
sg26
Nsg28
(inode
Node
p2402
(dp2403
g5
(inode
Node
p2404
(dp2405
g5
Nsg8
(lp2406
g10
(g14
S'\xd2\xc8\xe7\x15O%!\xc0'
p2407
tp2408
Rp2409
ag10
(g14
S'\x88\xa0j\xf4j\x97D@'
p2410
tp2411
Rp2412
asg23
(lp2413
I32
aI32
asg25
Nsg26
(lp2414
I112
aI527
asg28
Nsg29
Nsbsg8
(lp2415
g10
(g14
S'\x14\xe4z\xee\x173!\xc0'
p2416
tp2417
Rp2418
ag10
(g14
S'\x81\xe0\x04\xb9^\x98D@'
p2419
tp2420
Rp2421
asg23
Nsg25
F1.2617677561180332
sg26
Nsg28
(inode
Node
p2422
(dp2423
g5
(inode
Node
p2424
(dp2425
g5
Nsg8
(lp2426
g10
(g14
S'\xf7TN{J6!\xc0'
p2427
tp2428
Rp2429
ag10
(g14
S'\xbf\xa3\xc6\x84\x98\x91D@'
p2430
tp2431
Rp2432
asg23
(lp2433
I33
aI33
aI33
asg25
Nsg26
(lp2434
I526
aI1859
aI2427
asg28
Nsg29
Nsbsg8
(lp2435
g10
(g14
S'r\xde\x0c\x07\xd13!\xc0'
p2436
tp2437
Rp2438
ag10
(g14
S'U4\x17:\xb3\x98D@'
p2439
tp2440
Rp2441
asg23
Nsg25
F1.1600695253148026
sg26
Nsg28
(inode
Node
p2442
(dp2443
g5
(inode
Node
p2444
(dp2445
g5
Nsg8
(lp2446
g10
(g14
S'\xd0\x98I\xd4\x0b>!\xc0'
p2447
tp2448
Rp2449
ag10
(g14
S'\xdd\xeb\xa4\xbe,\x93D@'
p2450
tp2451
Rp2452
asg23
(lp2453
I34
aI34
aI34
asg25
Nsg26
(lp2454
I1142
aI1655
aI2473
asg28
Nsg29
Nsbsg8
(lp2455
g10
(g14
S'\x8b\xbb\x95\x00}6!\xc0'
p2456
tp2457
Rp2458
ag10
(g14
S'\xaf+a\x1b}\x98D@'
p2459
tp2460
Rp2461
asg23
Nsg25
F1.117198148738492
sg26
Nsg28
(inode
Node
p2462
(dp2463
g5
(inode
Node
p2464
(dp2465
g5
Nsg8
(lp2466
g10
(g14
S'|\x9d\xd4\x97\xa5U!\xc0'
p2467
tp2468
Rp2469
ag10
(g14
S'\xdeU\x0f\x98\x87\x9eD@'
p2470
tp2471
Rp2472
asg23
(lp2473
I35
asg25
Nsg26
(lp2474
I1458
asg28
Nsg29
Nsbsg8
(lp2475
g10
(g14
S'\x8a\x9eJ\xbc\xf25!\xc0'
p2476
tp2477
Rp2478
ag10
(g14
S'\xb8\xadg\xe7x\x98D@'
p2479
tp2480
Rp2481
asg23
Nsg25
F1.250701255309064
sg26
Nsg28
(inode
Node
p2482
(dp2483
g5
(inode
Node
p2484
(dp2485
g5
Nsg8
(lp2486
g10
(g14
S'\xe8G\xc3)s\x1f!\xc0'
p2487
tp2488
Rp2489
ag10
(g14
S'z\xe3\xa40\xefcD@'
p2490
tp2491
Rp2492
asg23
(lp2493
I36
aI36
asg25
Nsg26
(lp2494
I1606
aI1656
asg28
Nsg29
Nsbsg8
(lp2495
g10
(g14
S'\x99k\x82Ue;!\xc0'
p2496
tp2497
Rp2498
ag10
(g14
S'\x19T|%\xc3\x97D@'
p2499
tp2500
Rp2501
asg23
Nsg25
F1.5350098828419254
sg26
Nsg28
(inode
Node
p2502
(dp2503
g5
(inode
Node
p2504
(dp2505
g5
Nsg8
(lp2506
g10
(g14
S'\x91\xd1\x01I\xd8W!\xc0'
p2507
tp2508
Rp2509
ag10
(g14
S"\x85\xed'c|\x9eD@"
p2510
tp2511
Rp2512
asg23
(lp2513
I37
asg25
Nsg26
(lp2514
I1046
asg28
Nsg29
Nsbsg8
(lp2515
g10
(g14
S'\xc9\x01L$\xfd;!\xc0'
p2516
tp2517
Rp2518
ag10
(g14
S'\x88k}\xea\xbc\x98D@'
p2519
tp2520
Rp2521
asg23
Nsg25
F1.4035457040203294
sg26
Nsg28
(inode
Node
p2522
(dp2523
g5
(inode
Node
p2524
(dp2525
g5
Nsg8
(lp2526
g10
(g14
S'\x13\xd9\x07Y\x165!\xc0'
p2527
tp2528
Rp2529
ag10
(g14
S'\xd4\\n0\xd4\x9aD@'
p2530
tp2531
Rp2532
asg23
(lp2533
I38
aI38
aI38
aI38
aI38
aI38
aI38
aI38
asg25
Nsg26
(lp2534
I180
aI229
aI279
aI427
aI655
aI775
aI1713
aI2483
asg28
Nsg29
Nsbsg8
(lp2535
g10
(g14
S'k\x04z\x8b[;!\xc0'
p2536
tp2537
Rp2538
ag10
(g14
S'\x19ft\x84\x19\x98D@'
p2539
tp2540
Rp2541
asg23
Nsg25
F1.1785961040969448
sg26
Nsg28
(inode
Node
p2542
(dp2543
g5
(inode
Node
p2544
(dp2545
g5
Nsg8
(lp2546
g10
(g14
S'`\x01L\x198H!\xc0'
p2547
tp2548
Rp2549
ag10
(g14
S'\x89\xea\xad\x81\xad\x94D@'
p2550
tp2551
Rp2552
asg23
(lp2553
I39
asg25
Nsg26
(lp2554
I2668
asg28
Nsg29
Nsbsg8
(lp2555
g10
(g14
S'\xd3\t\xeb9r;!\xc0'
p2556
tp2557
Rp2558
ag10
(g14
S'\xd7\t\xb5\xe7\x02\x98D@'
p2559
tp2560
Rp2561
asg23
Nsg25
F1.733286026859257
sg26
Nsg28
(inode
Node
p2562
(dp2563
g5
(inode
Node
p2564
(dp2565
g5
Nsg8
(lp2566
g10
(g14
S'\xcbe\xa3s~b!\xc0'
p2567
tp2568
Rp2569
ag10
(g14
S'\x0c\xce\xe0\xef\x17\x97D@'
p2570
tp2571
Rp2572
asg23
(lp2573
I40
asg25
Nsg26
(lp2574
I2582
asg28
Nsg29
Nsbsg8
(lp2575
g10
(g14
S'7;ew%;!\xc0'
p2576
tp2577
Rp2578
ag10
(g14
S'DRCZ\xaa\x98D@'
p2579
tp2580
Rp2581
asg23
Nsg25
F1.1346831979764733
sg26
Nsg28
(inode
Node
p2582
(dp2583
g5
(inode
Node
p2584
(dp2585
g5
Nsg8
(lp2586
g10
(g14
S'\x0b\xd3\xf7\x1a\x82#\x1f\xc0'
p2587
tp2588
Rp2589
ag10
(g14
S'\xd7kzPP\x94D@'
p2590
tp2591
Rp2592
asg23
(lp2593
I41
asg25
Nsg26
(lp2594
I1034
asg28
Nsg29
Nsbsg8
(lp2595
g10
(g14
S'P\x18\x94i\xb4:!\xc0'
p2596
tp2597
Rp2598
ag10
(g14
S'\xfa1Ah\xa8\x98D@'
p2599
tp2600
Rp2601
asg23
Nsg25
F1.69205136364333
sg26
Nsg28
(inode
Node
p2602
(dp2603
g5
(inode
Node
p2604
(dp2605
g5
Nsg8
(lp2606
g10
(g14
S"H\xa3\x02'\xdb8!\xc0"
p2607
tp2608
Rp2609
ag10
(g14
S'M-[\xeb\x8b\x92D@'
p2610
tp2611
Rp2612
asg23
(lp2613
I42
asg25
Nsg26
(lp2614
I2835
asg28
Nsg29
Nsbsg8
(lp2615
g10
(g14
S'\x06\x86\x89\x9d\xb5>!\xc0'
p2616
tp2617
Rp2618
ag10
(g14
S'\xb1{\xfd\xf8\x91\x98D@'
p2619
tp2620
Rp2621
asg23
Nsg25
F1.8644188082254465
sg26
Nsg28
(inode
Node
p2622
(dp2623
g5
(inode
Node
p2624
(dp2625
g5
Nsg8
(lp2626
g10
(g14
S')=\xd3K\x8c-!\xc0'
p2627
tp2628
Rp2629
ag10
(g14
S'H\xf9I\xb5O\x95D@'
p2630
tp2631
Rp2632
asg23
(lp2633
I43
asg25
Nsg26
(lp2634
I1279
asg28
Nsg29
Nsbsg8
(lp2635
g10
(g14
S'J@\xf5\xb8\x18<!\xc0'
p2636
tp2637
Rp2638
ag10
(g14
S'\xd6\xfa\xcb\x97\xc0\x98D@'
p2639
tp2640
Rp2641
asg23
Nsg25
F1.7875381659966594
sg26
Nsg28
(inode
Node
p2642
(dp2643
g5
(inode
Node
p2644
(dp2645
g5
Nsg8
(lp2646
g10
(g14
S'Ii6\x8f\xc38!\xc0'
p2647
tp2648
Rp2649
ag10
(g14
S'\x14\xd1\xaf\xad\x9f\x92D@'
p2650
tp2651
Rp2652
asg23
(lp2653
I44
asg25
Nsg26
(lp2654
I69
asg28
Nsg29
Nsbsg8
(lp2655
g10
(g14
S'eL\xa8}\xc6;!\xc0'
p2656
tp2657
Rp2658
ag10
(g14
S'\xee\x14\xbc2\xb9\x98D@'
p2659
tp2660
Rp2661
asg23
Nsg25
F1.9490581884576497
sg26
Nsg28
(inode
Node
p2662
(dp2663
g5
(inode
Node
p2664
(dp2665
g5
Nsg8
(lp2666
g10
(g14
S'\x90\x19\xa8\x8c\x7fC!\xc0'
p2667
tp2668
Rp2669
ag10
(g14
S'\n\xdd%qV\x98D@'
p2670
tp2671
Rp2672
asg23
(lp2673
I45
aI45
asg25
Nsg26
(lp2674
I72
aI2251
asg28
Nsg29
Nsbsg8
(lp2675
g10
(g14
S'\xe6\x8d\xba\xeb\xcf;!\xc0'
p2676
tp2677
Rp2678
ag10
(g14
S'\xb5\x8c\t\x9b\xd5\x98D@'
p2679
tp2680
Rp2681
asg23
Nsg25
F1.324887444353562
sg26
Nsg28
(inode
Node
p2682
(dp2683
g5
(inode
Node
p2684
(dp2685
g5
Nsg8
(lp2686
g10
(g14
S'\xa2\xb2aMe\xa1 \xc0'
p2687
tp2688
Rp2689
ag10
(g14
S'*oG8-\x94D@'
p2690
tp2691
Rp2692
asg23
(lp2693
I46
asg25
Nsg26
(lp2694
I1942
asg28
Nsg29
Nsbsg8
(lp2695
g10
(g14
S'\xfb\xfclt_<!\xc0'
p2696
tp2697
Rp2698
ag10
(g14
S'\xfc\x95\xee\xd0\xac\x98D@'
p2699
tp2700
Rp2701
asg23
Nsg25
F1.2757340833297501
sg26
Nsg28
(inode
Node
p2702
(dp2703
g5
(inode
Node
p2704
(dp2705
g5
Nsg8
(lp2706
g10
(g14
S'\xee\x94\x0e\xd6\xffC!\xc0'
p2707
tp2708
Rp2709
ag10
(g14
S'|\xb6\x0e\x0e\xf6\x94D@'
p2710
tp2711
Rp2712
asg23
(lp2713
I47
aI47
aI47
aI47
asg25
Nsg26
(lp2714
I431
aI1605
aI1772
aI2485
asg28
Nsg29
Nsbsg8
(lp2715
g10
(g14
S';c\xd0\xfca<!\xc0'
p2716
tp2717
Rp2718
ag10
(g14
S'\xf5\xbf\x05\xbf4\x98D@'
p2719
tp2720
Rp2721
asg23
Nsg25
F1.1590367687520662
sg26
Nsg28
(inode
Node
p2722
(dp2723
g5
(inode
Node
p2724
(dp2725
g5
Nsg8
(lp2726
g10
(g14
S'\x87\x18\xafyUO!\xc0'
p2727
tp2728
Rp2729
ag10
(g14
S'\x98\xc6/\xbc\x92\x99D@'
p2730
tp2731
Rp2732
asg23
(lp2733
I48
aI48
asg25
Nsg26
(lp2734
I396
aI1598
asg28
Nsg29
Nsbsg8
(lp2735
g10
(g14
S'\x0f4\x9a\xaf);!\xc0'
p2736
tp2737
Rp2738
ag10
(g14
S'\rO\xa6\xe3F\x98D@'
p2739
tp2740
Rp2741
asg23
Nsg25
F1.5015247253928818
sg26
Nsg28
(inode
Node
p2742
(dp2743
g5
(inode
Node
p2744
(dp2745
g5
Nsg8
(lp2746
g10
(g14
S"\xe1'\x0e\xa0\xdfG!\xc0"
p2747
tp2748
Rp2749
ag10
(g14
S'\xaa+\x9f\xe5y\x94D@'
p2750
tp2751
Rp2752
asg23
(lp2753
I49
asg25
Nsg26
(lp2754
I850
asg28
Nsg29
Nsbsg8
(lp2755
g10
(g14
S'LG5B\x86;!\xc0'
p2756
tp2757
Rp2758
ag10
(g14
S'\xb8\x06\x86!\xd5\x97D@'
p2759
tp2760
Rp2761
asg23
Nsg25
F1.0139054151247295
sg26
Nsg28
(inode
Node
p2762
(dp2763
g5
(inode
Node
p2764
(dp2765
g5
Nsg8
(lp2766
g10
(g14
S'\xe1\t\xbd\xfe$V!\xc0'
p2767
tp2768
Rp2769
ag10
(g14
S'j\xa3:\x1d\xc8\x90D@'
p2770
tp2771
Rp2772
asg23
(lp2773
I50
asg25
Nsg26
(lp2774
I1409
asg28
Nsg29
Nsbsg8
(lp2775
g10
(g14
S'\xd7\xb3\xb35\x9d<!\xc0'
p2776
tp2777
Rp2778
ag10
(g14
S"'\xbb\x99\xd1\x8f\x97D@"
p2779
tp2780
Rp2781
asg23
Nsg25
F1.726802584781239
sg26
Nsg28
(inode
Node
p2782
(dp2783
g5
(inode
Node
p2784
(dp2785
g5
Nsg8
(lp2786
g10
(g14
S'\xbb}V\x99)\xb5 \xc0'
p2787
tp2788
Rp2789
ag10
(g14
S'O\xc7c\x06*\x97D@'
p2790
tp2791
Rp2792
asg23
(lp2793
I51
aI51
aI51
asg25
Nsg26
(lp2794
I1187
aI1788
aI2262
asg28
Nsg29
Nsbsg8
(lp2795
g10
(g14
S'\x067\x02I\x84<!\xc0'
p2796
tp2797
Rp2798
ag10
(g14
S'&[+A\x96\x97D@'
p2799
tp2800
Rp2801
asg23
Nsg25
F1.1089980074558956
sg26
Nsg28
(inode
Node
p2802
(dp2803
g5
(inode
Node
p2804
(dp2805
g5
Nsg8
(lp2806
g10
(g14
S'X\xe3l:\x020!\xc0'
p2807
tp2808
Rp2809
ag10
(g14
S'\x1f\x84\x80|\t\x97D@'
p2810
tp2811
Rp2812
asg23
(lp2813
I52
asg25
Nsg26
(lp2814
I142
asg28
Nsg29
Nsbsg8
(lp2815
g10
(g14
S'\xd3\xce\x84H\xfe?!\xc0'
p2816
tp2817
Rp2818
ag10
(g14
S'+\xf3D\x91x\x97D@'
p2819
tp2820
Rp2821
asg23
Nsg25
F1.3234151077329084
sg26
Nsg28
(inode
Node
p2822
(dp2823
g5
(inode
Node
p2824
(dp2825
g5
Nsg8
(lp2826
g10
(g14
S'\xc0\xe8\xf2\xe6p=!\xc0'
p2827
tp2828
Rp2829
ag10
(g14
S'$\xb7&\xdd\x96\x90D@'
p2830
tp2831
Rp2832
asg23
(lp2833
I53
asg25
Nsg26
(lp2834
I122
asg28
Nsg29
Nsbsg8
(lp2835
g10
(g14
S'a\xa3\xfe7-<!\xc0'
p2836
tp2837
Rp2838
ag10
(g14
S'\xcd\x8f\xa4Sd\x97D@'
p2839
tp2840
Rp2841
asg23
Nsg25
F1.674328420591784
sg26
Nsg28
(inode
Node
p2842
(dp2843
g5
(inode
Node
p2844
(dp2845
g5
Nsg8
(lp2846
g10
(g14
S'\x94\xc2\xbc\xc7\x99V!\xc0'
p2847
tp2848
Rp2849
ag10
(g14
S'\xff\\4d<\x9eD@'
p2850
tp2851
Rp2852
asg23
(lp2853
I54
asg25
Nsg26
(lp2854
I48
asg28
Nsg29
Nsbsg8
(lp2855
g10
(g14
S'5!\xb3\xa7\xfc<!\xc0'
p2856
tp2857
Rp2858
ag10
(g14
S'U6\x9aG\xef\x97D@'
p2859
tp2860
Rp2861
asg23
Nsg25
F1.3138419075602101
sg26
Nsg28
(inode
Node
p2862
(dp2863
g5
(inode
Node
p2864
(dp2865
g5
Nsg8
(lp2866
g10
(g14
S'\x87\x85\xfe\xad\x08R!\xc0'
p2867
tp2868
Rp2869
ag10
(g14
S'\xc7,$\tk\x9aD@'
p2870
tp2871
Rp2872
asg23
(lp2873
I55
aI55
aI55
aI55
aI55
aI55
aI55
aI55
aI55
aI55
aI55
aI55
aI55
aI55
aI55
aI55
aI55
asg25
Nsg26
(lp2874
I22
aI488
aI522
aI543
aI571
aI611
aI781
aI785
aI799
aI1106
aI1587
aI1596
aI1760
aI1891
aI2458
aI2522
aI2602
asg28
Nsg29
Nsbsg8
(lp2875
g10
(g14
S'\x9f*\x9c\x0c\xad<!\xc0'
p2876
tp2877
Rp2878
ag10
(g14
S'\xc3\x82\xb3w\xd8\x97D@'
p2879
tp2880
Rp2881
asg23
Nsg25
F0.4488000448682188
sg26
Nsg28
(inode
Node
p2882
(dp2883
g5
Nsg8
(lp2884
g10
(g14
S'Q\x9c\xea\xe0\x9e8!\xc0'
p2885
tp2886
Rp2887
ag10
(g14
S'\x0b\xe8\\7m\x97D@'
p2888
tp2889
Rp2890
asg23
(lp2891
I56
aI56
aI56
aI56
aI56
aI56
aI56
aI56
aI56
aI56
aI56
aI56
aI56
aI56
aI56
aI56
aI56
aI56
aI56
aI56
aI56
aI56
aI56
aI56
aI56
aI56
aI56
aI56
aI56
aI56
aI56
aI56
aI56
aI56
aI56
aI56
aI56
aI56
aI56
aI56
aI56
aI56
aI56
aI56
aI56
aI56
aI56
aI56
aI56
aI56
aI56
aI56
aI56
aI56
aI56
aI56
aI56
aI56
aI56
aI56
aI56
aI56
aI56
aI56
aI56
aI56
aI56
aI56
aI56
aI56
aI56
aI56
aI56
aI56
aI56
aI56
aI56
aI56
aI56
aI56
aI56
aI56
aI56
aI56
aI56
aI56
aI56
aI56
aI56
aI56
aI56
aI56
aI56
asg25
Nsg26
(lp2892
I11
aI64
aI98
aI117
aI181
aI186
aI246
aI256
aI265
aI275
aI277
aI309
aI334
aI351
aI356
aI359
aI376
aI385
aI400
aI448
aI455
aI461
aI482
aI485
aI634
aI690
aI697
aI730
aI773
aI796
aI831
aI859
aI871
aI905
aI952
aI989
aI999
aI1001
aI1028
aI1047
aI1075
aI1092
aI1110
aI1113
aI1115
aI1116
aI1118
aI1168
aI1206
aI1208
aI1299
aI1340
aI1451
aI1538
aI1552
aI1577
aI1677
aI1706
aI1722
aI1726
aI1733
aI1742
aI1818
aI1834
aI1837
aI1847
aI1945
aI1986
aI2011
aI2210
aI2279
aI2328
aI2384
aI2385
aI2391
aI2434
aI2501
aI2541
aI2570
aI2574
aI2584
aI2635
aI2674
aI2678
aI2732
aI2759
aI2791
aI2875
aI2906
aI2922
aI2942
aI2959
aI2991
asg28
Nsg29
Nsbsg29
g310
(g311
(I0
tp2893
g313
tp2894
Rp2895
(I1
(I2
tp2896
g14
I00
S'-C\x1c\xeb\xe2V!\xc0\xf8\xaa\x95\t\xbf\x9eD@'
p2897
tp2898
bsbsg29
g310
(g311
(I0
tp2899
g313
tp2900
Rp2901
(I1
(I2
tp2902
g14
I00
S'-&6\x1f\xd7V!\xc0\x84~\xa6^\xb7\x9eD@'
p2903
tp2904
bsbsg29
g310
(g311
(I0
tp2905
g313
tp2906
Rp2907
(I1
(I2
tp2908
g14
I00
S'y\xce\x16\x10ZW!\xc08\xf8\xc2d\xaa\x9eD@'
p2909
tp2910
bsbsg29
g310
(g311
(I0
tp2911
g313
tp2912
Rp2913
(I1
(I2
tp2914
g14
I00
S'`"\xde:\xffV!\xc0R\x9a\xcd\xe30\x9eD@'
p2915
tp2916
bsbsg29
g310
(g311
(I0
tp2917
g313
tp2918
Rp2919
(I1
(I2
tp2920
g14
I00
S'\xac\x8b\xdbh\x00W!\xc0\xac\xe5\xceL0\x9eD@'
p2921
tp2922
bsbsg29
g310
(g311
(I0
tp2923
g313
tp2924
Rp2925
(I1
(I2
tp2926
g14
I00
S'\x12\x84+\xa0PW!\xc0\x11\x18\xeb\x1b\x98\x9eD@'
p2927
tp2928
bsbsg29
g310
(g311
(I0
tp2929
g313
tp2930
Rp2931
(I1
(I2
tp2932
g14
I00
S'\x13\xb9\xe0\x0c\xfeV!\xc0\x12\xf6\xed$"\x9eD@'
p2933
tp2934
bsbsg29
g310
(g311
(I0
tp2935
g313
tp2936
Rp2937
(I1
(I2
tp2938
g14
I00
S'\xac\xffs\x98/W!\xc0X\x1c\xce\xfcj\x9eD@'
p2939
tp2940
bsbsg29
g310
(g311
(I0
tp2941
g313
tp2942
Rp2943
(I1
(I2
tp2944
g14
I00
S'\x93\xaa\xed&\xf8V!\xc0Y\x8bO\x010\x9eD@'
p2945
tp2946
bsbsg29
g310
(g311
(I0
tp2947
g313
tp2948
Rp2949
(I1
(I2
tp2950
g14
I00
S'F\x07$a\xdfV!\xc0\xf8k\xb2F=\x9eD@'
p2951
tp2952
bsbsg29
g310
(g311
(I0
tp2953
g313
tp2954
Rp2955
(I1
(I2
tp2956
g14
I00
S'\xac\xa8\xc14\x0cW!\xc0\xf2\xd1\xe2\x8ca\x9eD@'
p2957
tp2958
bsbsg29
g310
(g311
(I0
tp2959
g313
tp2960
Rp2961
(I1
(I2
tp2962
g14
I00
S'\xac\xffs\x98/W!\xc0\xd1\xca\xbd\xc0\xac\x9eD@'
p2963
tp2964
bsbsg29
g310
(g311
(I0
tp2965
g313
tp2966
Rp2967
(I1
(I2
tp2968
g14
I00
S"_'\xf5eiW!\xc0\xe5\x80]M\x9e\x9eD@"
p2969
tp2970
bsbsg29
g310
(g311
(I0
tp2971
g313
tp2972
Rp2973
(I1
(I2
tp2974
g14
I00
S'\xf8P\xa2%\x8fW!\xc0\xeb\x8e\xc56\xa9\x9eD@'
p2975
tp2976
bsbsg29
g310
(g311
(I0
tp2977
g313
tp2978
Rp2979
(I1
(I2
tp2980
g14
I00
S'\x92\xaf\x04RbW!\xc0\x18\xec\x86m\x8b\x9eD@'
p2981
tp2982
bsbsg29
g310
(g311
(I0
tp2983
g313
tp2984
Rp2985
(I1
(I2
tp2986
g14
I00
S'zUg\xb5\xc0V!\xc0\xac\xab\x02\xb5\x18\x9eD@'
p2987
tp2988
bsbsg29
g310
(g311
(I0
tp2989
g313
tp2990
Rp2991
(I1
(I2
tp2992
g14
I00
S'\xdf5\xe8KoW!\xc0\xd8\x81sF\x94\x9eD@'
p2993
tp2994
bsbsg29
g310
(g311
(I0
tp2995
g313
tp2996
Rp2997
(I1
(I2
tp2998
g14
I00
S'e\x8b\xa4\xdd\xe8S!\xc0\xf9\xf7\x19\x17\x0e\x9eD@'
p2999
tp3000
bsbsg29
g310
(g311
(I0
tp3001
g313
tp3002
Rp3003
(I1
(I2
tp3004
g14
I00
S'2\xe6\xae%\xe4S!\xc0RC\x1b\x80\r\x9eD@'
p3005
tp3006
bsbsg29
g310
(g311
(I0
tp3007
g313
tp3008
Rp3009
(I1
(I2
tp3010
g14
I00
S'\x17\xf2\x08n\xa4T!\xc0R\x0ef\x13`\x9eD@'
p3011
tp3012
bsbsg29
g310
(g311
(I0
tp3013
g313
tp3014
Rp3015
(I1
(I2
tp3016
g14
I00
S'\xc7\xf3\x19PoV!\xc0\xf3\x92\xff\xc9\xdf\x9dD@'
p3017
tp3018
bsbsg29
g310
(g311
(I0
tp3019
g313
tp3020
Rp3021
(I1
(I2
tp3022
g14
I00
S'Ig`\xe4eU!\xc0\xa6F\xe8g\xea\x9dD@'
p3023
tp3024
bsbsg29
g310
(g311
(I0
tp3025
g313
tp3026
Rp3027
(I1
(I2
tp3028
g14
I00
S'b\xbc\xe6U\x9dU!\xc0r\xf8\xa4\x13\t\x9eD@'
p3029
tp3030
bsbsg29
g310
(g311
(I0
tp3031
g313
tp3032
Rp3033
(I1
(I2
tp3034
g14
I00
S'\xcc\x9b\xc3\xb5\xdaS!\xc0\x06\xda\x1dR\x0c\x9eD@'
p3035
tp3036
bsbsg29
g310
(g311
(I0
tp3037
g313
tp3038
Rp3039
(I1
(I2
tp3040
g14
I00
S'\xaf\xb1KToU!\xc0\x9fUfJ\xeb\x9dD@'
p3041
tp3042
bsbsg29
g310
(g311
(I0
tp3043
g313
tp3044
Rp3045
(I1
(I2
tp3046
g14
I00
S'b0\x7f\x85\xccU!\xc0\x92\xe7\xfa>\x1c\x9eD@'
p3047
tp3048
bsbsg29
g310
(g311
(I0
tp3049
g313
tp3050
Rp3051
(I1
(I2
tp3052
g14
I00
S'\x18\x05\xc1\xe3\xdbS!\xc0\x06\xda\x1dR\x0c\x9eD@'
p3053
tp3054
bsbsg29
g310
(g311
(I0
tp3055
g313
tp3056
Rp3057
(I1
(I2
tp3058
g14
I00
S'\xe29[@hU!\xc0\x9fUfJ\xeb\x9dD@'
p3059
tp3060
bsbsg29
g310
(g311
(I0
tp3061
g313
tp3062
Rp3063
(I1
(I2
tp3064
g14
I00
S'\x94k\ndvV!\xc0\xdf\xbfyq\xe2\x9dD@'
p3065
tp3066
bsbsg29
g310
(g311
(I0
tp3067
g313
tp3068
Rp3069
(I1
(I2
tp3070
g14
I00
S'3\xa7\xcbbbS!\xc0EIH\xa4m\x9eD@'
p3071
tp3072
bsbsg29
g310
(g311
(I0
tp3073
g313
tp3074
Rp3075
(I1
(I2
tp3076
g14
I00
S'\xe3\xe2\xa8\xdcDU!\xc0xz\xa5,C\x9eD@'
p3077
tp3078
bsbsg29
g310
(g311
(I0
tp3079
g313
tp3080
Rp3081
(I1
(I2
tp3082
g14
I00
S'`?\xc4\x06\x0bW!\xc0\x1fL\x8a\x8fO\x9eD@'
p3083
tp3084
bsbsg29
g310
(g311
(I0
tp3085
g313
tp3086
Rp3087
(I1
(I2
tp3088
g14
I00
S'\xcd\xae{+\x12S!\xc0\x9f \xb1\xdd=\x9eD@'
p3089
tp3090
bsbsg29
g310
(g311
(I0
tp3091
g313
tp3092
Rp3093
(I1
(I2
tp3094
g14
I00
S'\xad\xfa\\m\xc5V!\xc0\xb3(\xec\xa2\xe8\x9dD@'
p3095
tp3096
bsbsg29
g310
(g311
(I0
tp3097
g313
tp3098
Rp3099
(I1
(I2
tp3100
g14
I00
S'3\xa7\xcbbbS!\xc0R+L\xdfk\x9eD@'
p3101
tp3102
bsbsg29
g310
(g311
(I0
tp3103
g313
tp3104
Rp3105
(I1
(I2
tp3106
g14
I00
S'\x1a\x18yY\x13S!\xc0\xf2z0)>\x9eD@'
p3107
tp3108
bsbsg29
g310
(g311
(I0
tp3109
g313
tp3110
Rp3111
(I1
(I2
tp3112
g14
I00
S'.\xc5Ue\xdfU!\xc0\x8c+.\x8e\xca\x9dD@'
p3113
tp3114
bsbsg29
g310
(g311
(I0
tp3115
g313
tp3116
Rp3117
(I1
(I2
tp3118
g14
I00
S'\xfbv\x12\x11\xfeU!\xc0\x92[\x93nK\x9eD@'
p3119
tp3120
bsbsg29
g310
(g311
(I0
tp3121
g313
tp3122
Rp3123
(I1
(I2
tp3124
g14
I00
S'\xaf|\x96\xe7\xc1U!\xc0lv\xa4\xfa\xce\x9dD@'
p3125
tp3126
bsbsg29
g310
(g311
(I0
tp3127
g313
tp3128
Rp3129
(I1
(I2
tp3130
g14
I00
S'c&Q/\xf8T!\xc0\x92\xca\x14s\x10\x9eD@'
p3131
tp3132
bsbsg29
g310
(g311
(I0
tp3133
g313
tp3134
Rp3135
(I1
(I2
tp3136
g14
I00
S"\x95'\x10v\x8aU!\xc0\xb2b\xb8:\x00\x9eD@"
p3137
tp3138
bsbsg29
g310
(g311
(I0
tp3139
g313
tp3140
Rp3141
(I1
(I2
tp3142
g14
I00
S'\x96\xb3wF[U!\xc0\x99G\xfe`\xe0\x9dD@'
p3143
tp3144
bsbsg29
g310
(g311
(I0
tp3145
g313
tp3146
Rp3147
(I1
(I2
tp3148
g14
I00
S'|\xefo\xd0^U!\xc0yu\x8e\x01\xd9\x9dD@'
p3149
tp3150
bsbsg29
g310
(g311
(I0
tp3151
g313
tp3152
Rp3153
(I1
(I2
tp3154
g14
I00
S'\x96\xd0]\x12gU!\xc0\x86:\xacp\xcb\x9dD@'
p3155
tp3156
bsbsg29
g310
(g311
(I0
tp3157
g313
tp3158
Rp3159
(I1
(I2
tp3160
g14
I00
S'bjK\x1d\xe4U!\xc0y@\xd9\x94+\x9eD@'
p3161
tp3162
bsbsg29
g310
(g311
(I0
tp3163
g313
tp3164
Rp3165
(I1
(I2
tp3166
g14
I00
S'\xe2\x90\r\xa4\x8bU!\xc0R&5\xb4\x01\x9eD@'
p3167
tp3168
bsbsg29
g310
(g311
(I0
tp3169
g313
tp3170
Rp3171
(I1
(I2
tp3172
g14
I00
S'\xc9Xm\xfe_U!\xc0S\xb2\x9c\x84\xd2\x9dD@'
p3173
tp3174
bsbsg29
g310
(g311
(I0
tp3175
g313
tp3176
Rp3177
(I1
(I2
tp3178
g14
I00
S'\xe1\xb2\n\x9b\x01V!\xc0M0\x9ck\x98\x9dD@'
p3179
tp3180
bsbsg29
g310
(g311
(I0
tp3181
g313
tp3182
Rp3183
(I1
(I2
tp3184
g14
I00
S'/\x86r\xa2]U!\xc0\xf3\x92\xff\xc9\xdf\x9dD@'
p3185
tp3186
bsbsg29
g310
(g311
(I0
tp3187
g313
tp3188
Rp3189
(I1
(I2
tp3190
g14
I00
S'\xaf\x99|\xb3\xcdU!\xc0\xd3/\x11o\x9d\x9dD@'
p3191
tp3192
bsbsg29
g310
(g311
(I0
tp3193
g313
tp3194
Rp3195
(I1
(I2
tp3196
g14
I00
S'z\xa7\x02\xeeyV!\xc0\x86tx\x08\xe3\x9dD@'
p3197
tp3198
bsbsg29
g310
(g311
(I0
tp3199
g313
tp3200
Rp3201
(I1
(I2
tp3202
g14
I00
S'\x96\xe8,\xb3\x08U!\xc0x\x0b$(~\x9eD@'
p3203
tp3204
bsbsg29
g310
(g311
(I0
tp3205
g313
tp3206
Rp3207
(I1
(I2
tp3208
g14
I00
S'0L\xa6\nFU!\xc0\x85\\\xa9gA\x9eD@'
p3209
tp3210
bsbsg29
g310
(g311
(I0
tp3211
g313
tp3212
Rp3213
(I1
(I2
tp3214
g14
I00
S'\x97\x91zO\xe5T!\xc0K\x00\xfe)U\x9eD@'
p3215
tp3216
bsbsg29
g310
(g311
(I0
tp3217
g313
tp3218
Rp3219
(I1
(I2
tp3220
g14
I00
S'\xc8\xd1\x1cY\xf9U!\xc0\xd2n\xf41\x1f\x9eD@'
p3221
tp3222
bsbsg29
g310
(g311
(I0
tp3223
g313
tp3224
Rp3225
(I1
(I2
tp3226
g14
I00
S'c\x0e\x82\x8eVU!\xc0\xcc\t\xda\xe4\xf0\x9dD@'
p3227
tp3228
bsbsb.